
testing:     file format elf32-littlearm


Disassembly of section .init:

0000bf88 <_init>:
    bf88:	e92d4008 	push	{r3, lr}
    bf8c:	eb0000e9 	bl	c338 <call_weak_fn>
    bf90:	e8bd8008 	pop	{r3, pc}

Disassembly of section .plt:

0000bf94 <.plt>:
    bf94:	e52de004 	push	{lr}		; (str lr, [sp, #-4]!)
    bf98:	e59fe004 	ldr	lr, [pc, #4]	; bfa4 <_init+0x1c>
    bf9c:	e08fe00e 	add	lr, pc, lr
    bfa0:	e5bef008 	ldr	pc, [lr, #8]!
    bfa4:	0000c05c 	.word	0x0000c05c
    bfa8:	e28fc600 	add	ip, pc, #0, 12
    bfac:	e28cca0c 	add	ip, ip, #12, 20	; 0xc000
    bfb0:	e5bcf05c 	ldr	pc, [ip, #92]!	; 0x5c
    bfb4:	e28fc600 	add	ip, pc, #0, 12
    bfb8:	e28cca0c 	add	ip, ip, #12, 20	; 0xc000
    bfbc:	e5bcf054 	ldr	pc, [ip, #84]!	; 0x54
    bfc0:	e28fc600 	add	ip, pc, #0, 12
    bfc4:	e28cca0c 	add	ip, ip, #12, 20	; 0xc000
    bfc8:	e5bcf04c 	ldr	pc, [ip, #76]!	; 0x4c
    bfcc:	e28fc600 	add	ip, pc, #0, 12
    bfd0:	e28cca0c 	add	ip, ip, #12, 20	; 0xc000
    bfd4:	e5bcf044 	ldr	pc, [ip, #68]!	; 0x44
    bfd8:	e28fc600 	add	ip, pc, #0, 12
    bfdc:	e28cca0c 	add	ip, ip, #12, 20	; 0xc000
    bfe0:	e5bcf03c 	ldr	pc, [ip, #60]!	; 0x3c
    bfe4:	e28fc600 	add	ip, pc, #0, 12
    bfe8:	e28cca0c 	add	ip, ip, #12, 20	; 0xc000
    bfec:	e5bcf034 	ldr	pc, [ip, #52]!	; 0x34
    bff0:	e28fc600 	add	ip, pc, #0, 12
    bff4:	e28cca0c 	add	ip, ip, #12, 20	; 0xc000
    bff8:	e5bcf02c 	ldr	pc, [ip, #44]!	; 0x2c
    bffc:	e28fc600 	add	ip, pc, #0, 12
    c000:	e28cca0c 	add	ip, ip, #12, 20	; 0xc000
    c004:	e5bcf024 	ldr	pc, [ip, #36]!	; 0x24
    c008:	e28fc600 	add	ip, pc, #0, 12
    c00c:	e28cca0c 	add	ip, ip, #12, 20	; 0xc000
    c010:	e5bcf01c 	ldr	pc, [ip, #28]!
    c014:	e28fc600 	add	ip, pc, #0, 12
    c018:	e28cca0c 	add	ip, ip, #12, 20	; 0xc000
    c01c:	e5bcf014 	ldr	pc, [ip, #20]!
    c020:	e28fc600 	add	ip, pc, #0, 12
    c024:	e28cca0c 	add	ip, ip, #12, 20	; 0xc000
    c028:	e5bcf00c 	ldr	pc, [ip, #12]!
    c02c:	e28fc600 	add	ip, pc, #0, 12
    c030:	e28cca0c 	add	ip, ip, #12, 20	; 0xc000
    c034:	e5bcf004 	ldr	pc, [ip, #4]!
    c038:	e28fc600 	add	ip, pc, #0, 12
    c03c:	e28cca0b 	add	ip, ip, #45056	; 0xb000
    c040:	e5bcfffc 	ldr	pc, [ip, #4092]!	; 0xffc
    c044:	e28fc600 	add	ip, pc, #0, 12
    c048:	e28cca0b 	add	ip, ip, #45056	; 0xb000
    c04c:	e5bcfff4 	ldr	pc, [ip, #4084]!	; 0xff4
    c050:	e28fc600 	add	ip, pc, #0, 12
    c054:	e28cca0b 	add	ip, ip, #45056	; 0xb000
    c058:	e5bcffec 	ldr	pc, [ip, #4076]!	; 0xfec
    c05c:	e28fc600 	add	ip, pc, #0, 12
    c060:	e28cca0b 	add	ip, ip, #45056	; 0xb000
    c064:	e5bcffe4 	ldr	pc, [ip, #4068]!	; 0xfe4
    c068:	e28fc600 	add	ip, pc, #0, 12
    c06c:	e28cca0b 	add	ip, ip, #45056	; 0xb000
    c070:	e5bcffdc 	ldr	pc, [ip, #4060]!	; 0xfdc
    c074:	e28fc600 	add	ip, pc, #0, 12
    c078:	e28cca0b 	add	ip, ip, #45056	; 0xb000
    c07c:	e5bcffd4 	ldr	pc, [ip, #4052]!	; 0xfd4
    c080:	e28fc600 	add	ip, pc, #0, 12
    c084:	e28cca0b 	add	ip, ip, #45056	; 0xb000
    c088:	e5bcffcc 	ldr	pc, [ip, #4044]!	; 0xfcc
    c08c:	e28fc600 	add	ip, pc, #0, 12
    c090:	e28cca0b 	add	ip, ip, #45056	; 0xb000
    c094:	e5bcffc4 	ldr	pc, [ip, #4036]!	; 0xfc4
    c098:	e28fc600 	add	ip, pc, #0, 12
    c09c:	e28cca0b 	add	ip, ip, #45056	; 0xb000
    c0a0:	e5bcffbc 	ldr	pc, [ip, #4028]!	; 0xfbc
    c0a4:	e28fc600 	add	ip, pc, #0, 12
    c0a8:	e28cca0b 	add	ip, ip, #45056	; 0xb000
    c0ac:	e5bcffb4 	ldr	pc, [ip, #4020]!	; 0xfb4
    c0b0:	e28fc600 	add	ip, pc, #0, 12
    c0b4:	e28cca0b 	add	ip, ip, #45056	; 0xb000
    c0b8:	e5bcffac 	ldr	pc, [ip, #4012]!	; 0xfac
    c0bc:	e28fc600 	add	ip, pc, #0, 12
    c0c0:	e28cca0b 	add	ip, ip, #45056	; 0xb000
    c0c4:	e5bcffa4 	ldr	pc, [ip, #4004]!	; 0xfa4
    c0c8:	e28fc600 	add	ip, pc, #0, 12
    c0cc:	e28cca0b 	add	ip, ip, #45056	; 0xb000
    c0d0:	e5bcff9c 	ldr	pc, [ip, #3996]!	; 0xf9c
    c0d4:	e28fc600 	add	ip, pc, #0, 12
    c0d8:	e28cca0b 	add	ip, ip, #45056	; 0xb000
    c0dc:	e5bcff94 	ldr	pc, [ip, #3988]!	; 0xf94
    c0e0:	e28fc600 	add	ip, pc, #0, 12
    c0e4:	e28cca0b 	add	ip, ip, #45056	; 0xb000
    c0e8:	e5bcff8c 	ldr	pc, [ip, #3980]!	; 0xf8c
    c0ec:	e28fc600 	add	ip, pc, #0, 12
    c0f0:	e28cca0b 	add	ip, ip, #45056	; 0xb000
    c0f4:	e5bcff84 	ldr	pc, [ip, #3972]!	; 0xf84
    c0f8:	e28fc600 	add	ip, pc, #0, 12
    c0fc:	e28cca0b 	add	ip, ip, #45056	; 0xb000
    c100:	e5bcff7c 	ldr	pc, [ip, #3964]!	; 0xf7c
    c104:	e28fc600 	add	ip, pc, #0, 12
    c108:	e28cca0b 	add	ip, ip, #45056	; 0xb000
    c10c:	e5bcff74 	ldr	pc, [ip, #3956]!	; 0xf74
    c110:	e28fc600 	add	ip, pc, #0, 12
    c114:	e28cca0b 	add	ip, ip, #45056	; 0xb000
    c118:	e5bcff6c 	ldr	pc, [ip, #3948]!	; 0xf6c
    c11c:	e28fc600 	add	ip, pc, #0, 12
    c120:	e28cca0b 	add	ip, ip, #45056	; 0xb000
    c124:	e5bcff64 	ldr	pc, [ip, #3940]!	; 0xf64
    c128:	e28fc600 	add	ip, pc, #0, 12
    c12c:	e28cca0b 	add	ip, ip, #45056	; 0xb000
    c130:	e5bcff5c 	ldr	pc, [ip, #3932]!	; 0xf5c
    c134:	e28fc600 	add	ip, pc, #0, 12
    c138:	e28cca0b 	add	ip, ip, #45056	; 0xb000
    c13c:	e5bcff54 	ldr	pc, [ip, #3924]!	; 0xf54
    c140:	e28fc600 	add	ip, pc, #0, 12
    c144:	e28cca0b 	add	ip, ip, #45056	; 0xb000
    c148:	e5bcff4c 	ldr	pc, [ip, #3916]!	; 0xf4c
    c14c:	e28fc600 	add	ip, pc, #0, 12
    c150:	e28cca0b 	add	ip, ip, #45056	; 0xb000
    c154:	e5bcff44 	ldr	pc, [ip, #3908]!	; 0xf44
    c158:	e28fc600 	add	ip, pc, #0, 12
    c15c:	e28cca0b 	add	ip, ip, #45056	; 0xb000
    c160:	e5bcff3c 	ldr	pc, [ip, #3900]!	; 0xf3c
    c164:	e28fc600 	add	ip, pc, #0, 12
    c168:	e28cca0b 	add	ip, ip, #45056	; 0xb000
    c16c:	e5bcff34 	ldr	pc, [ip, #3892]!	; 0xf34
    c170:	e28fc600 	add	ip, pc, #0, 12
    c174:	e28cca0b 	add	ip, ip, #45056	; 0xb000
    c178:	e5bcff2c 	ldr	pc, [ip, #3884]!	; 0xf2c
    c17c:	e28fc600 	add	ip, pc, #0, 12
    c180:	e28cca0b 	add	ip, ip, #45056	; 0xb000
    c184:	e5bcff24 	ldr	pc, [ip, #3876]!	; 0xf24
    c188:	e28fc600 	add	ip, pc, #0, 12
    c18c:	e28cca0b 	add	ip, ip, #45056	; 0xb000
    c190:	e5bcff1c 	ldr	pc, [ip, #3868]!	; 0xf1c
    c194:	e28fc600 	add	ip, pc, #0, 12
    c198:	e28cca0b 	add	ip, ip, #45056	; 0xb000
    c19c:	e5bcff14 	ldr	pc, [ip, #3860]!	; 0xf14
    c1a0:	e28fc600 	add	ip, pc, #0, 12
    c1a4:	e28cca0b 	add	ip, ip, #45056	; 0xb000
    c1a8:	e5bcff0c 	ldr	pc, [ip, #3852]!	; 0xf0c
    c1ac:	e28fc600 	add	ip, pc, #0, 12
    c1b0:	e28cca0b 	add	ip, ip, #45056	; 0xb000
    c1b4:	e5bcff04 	ldr	pc, [ip, #3844]!	; 0xf04
    c1b8:	e28fc600 	add	ip, pc, #0, 12
    c1bc:	e28cca0b 	add	ip, ip, #45056	; 0xb000
    c1c0:	e5bcfefc 	ldr	pc, [ip, #3836]!	; 0xefc
    c1c4:	e28fc600 	add	ip, pc, #0, 12
    c1c8:	e28cca0b 	add	ip, ip, #45056	; 0xb000
    c1cc:	e5bcfef4 	ldr	pc, [ip, #3828]!	; 0xef4
    c1d0:	e28fc600 	add	ip, pc, #0, 12
    c1d4:	e28cca0b 	add	ip, ip, #45056	; 0xb000
    c1d8:	e5bcfeec 	ldr	pc, [ip, #3820]!	; 0xeec
    c1dc:	e28fc600 	add	ip, pc, #0, 12
    c1e0:	e28cca0b 	add	ip, ip, #45056	; 0xb000
    c1e4:	e5bcfee4 	ldr	pc, [ip, #3812]!	; 0xee4
    c1e8:	e28fc600 	add	ip, pc, #0, 12
    c1ec:	e28cca0b 	add	ip, ip, #45056	; 0xb000
    c1f0:	e5bcfedc 	ldr	pc, [ip, #3804]!	; 0xedc
    c1f4:	e28fc600 	add	ip, pc, #0, 12
    c1f8:	e28cca0b 	add	ip, ip, #45056	; 0xb000
    c1fc:	e5bcfed4 	ldr	pc, [ip, #3796]!	; 0xed4
    c200:	e28fc600 	add	ip, pc, #0, 12
    c204:	e28cca0b 	add	ip, ip, #45056	; 0xb000
    c208:	e5bcfecc 	ldr	pc, [ip, #3788]!	; 0xecc
    c20c:	e28fc600 	add	ip, pc, #0, 12
    c210:	e28cca0b 	add	ip, ip, #45056	; 0xb000
    c214:	e5bcfec4 	ldr	pc, [ip, #3780]!	; 0xec4
    c218:	e28fc600 	add	ip, pc, #0, 12
    c21c:	e28cca0b 	add	ip, ip, #45056	; 0xb000
    c220:	e5bcfebc 	ldr	pc, [ip, #3772]!	; 0xebc
    c224:	e28fc600 	add	ip, pc, #0, 12
    c228:	e28cca0b 	add	ip, ip, #45056	; 0xb000
    c22c:	e5bcfeb4 	ldr	pc, [ip, #3764]!	; 0xeb4
    c230:	e28fc600 	add	ip, pc, #0, 12
    c234:	e28cca0b 	add	ip, ip, #45056	; 0xb000
    c238:	e5bcfeac 	ldr	pc, [ip, #3756]!	; 0xeac
    c23c:	e28fc600 	add	ip, pc, #0, 12
    c240:	e28cca0b 	add	ip, ip, #45056	; 0xb000
    c244:	e5bcfea4 	ldr	pc, [ip, #3748]!	; 0xea4
    c248:	e28fc600 	add	ip, pc, #0, 12
    c24c:	e28cca0b 	add	ip, ip, #45056	; 0xb000
    c250:	e5bcfe9c 	ldr	pc, [ip, #3740]!	; 0xe9c
    c254:	e28fc600 	add	ip, pc, #0, 12
    c258:	e28cca0b 	add	ip, ip, #45056	; 0xb000
    c25c:	e5bcfe94 	ldr	pc, [ip, #3732]!	; 0xe94
    c260:	e28fc600 	add	ip, pc, #0, 12
    c264:	e28cca0b 	add	ip, ip, #45056	; 0xb000
    c268:	e5bcfe8c 	ldr	pc, [ip, #3724]!	; 0xe8c
    c26c:	e28fc600 	add	ip, pc, #0, 12
    c270:	e28cca0b 	add	ip, ip, #45056	; 0xb000
    c274:	e5bcfe84 	ldr	pc, [ip, #3716]!	; 0xe84
    c278:	e28fc600 	add	ip, pc, #0, 12
    c27c:	e28cca0b 	add	ip, ip, #45056	; 0xb000
    c280:	e5bcfe7c 	ldr	pc, [ip, #3708]!	; 0xe7c
    c284:	e28fc600 	add	ip, pc, #0, 12
    c288:	e28cca0b 	add	ip, ip, #45056	; 0xb000
    c28c:	e5bcfe74 	ldr	pc, [ip, #3700]!	; 0xe74
    c290:	e28fc600 	add	ip, pc, #0, 12
    c294:	e28cca0b 	add	ip, ip, #45056	; 0xb000
    c298:	e5bcfe6c 	ldr	pc, [ip, #3692]!	; 0xe6c
    c29c:	e28fc600 	add	ip, pc, #0, 12
    c2a0:	e28cca0b 	add	ip, ip, #45056	; 0xb000
    c2a4:	e5bcfe64 	ldr	pc, [ip, #3684]!	; 0xe64
    c2a8:	e28fc600 	add	ip, pc, #0, 12
    c2ac:	e28cca0b 	add	ip, ip, #45056	; 0xb000
    c2b0:	e5bcfe5c 	ldr	pc, [ip, #3676]!	; 0xe5c
    c2b4:	e28fc600 	add	ip, pc, #0, 12
    c2b8:	e28cca0b 	add	ip, ip, #45056	; 0xb000
    c2bc:	e5bcfe54 	ldr	pc, [ip, #3668]!	; 0xe54
    c2c0:	e28fc600 	add	ip, pc, #0, 12
    c2c4:	e28cca0b 	add	ip, ip, #45056	; 0xb000
    c2c8:	e5bcfe4c 	ldr	pc, [ip, #3660]!	; 0xe4c
    c2cc:	e28fc600 	add	ip, pc, #0, 12
    c2d0:	e28cca0b 	add	ip, ip, #45056	; 0xb000
    c2d4:	e5bcfe44 	ldr	pc, [ip, #3652]!	; 0xe44
    c2d8:	e28fc600 	add	ip, pc, #0, 12
    c2dc:	e28cca0b 	add	ip, ip, #45056	; 0xb000
    c2e0:	e5bcfe3c 	ldr	pc, [ip, #3644]!	; 0xe3c
    c2e4:	e28fc600 	add	ip, pc, #0, 12
    c2e8:	e28cca0b 	add	ip, ip, #45056	; 0xb000
    c2ec:	e5bcfe34 	ldr	pc, [ip, #3636]!	; 0xe34
    c2f0:	e28fc600 	add	ip, pc, #0, 12
    c2f4:	e28cca0b 	add	ip, ip, #45056	; 0xb000
    c2f8:	e5bcfe2c 	ldr	pc, [ip, #3628]!	; 0xe2c
    c2fc:	e28fc600 	add	ip, pc, #0, 12
    c300:	e28cca0b 	add	ip, ip, #45056	; 0xb000
    c304:	e5bcfe24 	ldr	pc, [ip, #3620]!	; 0xe24

Disassembly of section .text:

0000c308 <_start>:
    c308:	f04f 0b00 	mov.w	fp, #0
    c30c:	f04f 0e00 	mov.w	lr, #0
    c310:	bc02      	pop	{r1}
    c312:	466a      	mov	r2, sp
    c314:	b404      	push	{r2}
    c316:	b401      	push	{r0}
    c318:	f8df c010 	ldr.w	ip, [pc, #16]	; c32c <_start+0x24>
    c31c:	f84d cd04 	str.w	ip, [sp, #-4]!
    c320:	4803      	ldr	r0, [pc, #12]	; (c330 <_start+0x28>)
    c322:	4b04      	ldr	r3, [pc, #16]	; (c334 <_start+0x2c>)
    c324:	f7ff ee9a 	blx	c05c <_init+0xd4>
    c328:	f7ff efac 	blx	c284 <_init+0x2fc>
    c32c:	0000eb31 	.word	0x0000eb31
    c330:	0000d2b5 	.word	0x0000d2b5
    c334:	0000eaf1 	.word	0x0000eaf1

0000c338 <call_weak_fn>:
    c338:	e59f3014 	ldr	r3, [pc, #20]	; c354 <call_weak_fn+0x1c>
    c33c:	e59f2014 	ldr	r2, [pc, #20]	; c358 <call_weak_fn+0x20>
    c340:	e08f3003 	add	r3, pc, r3
    c344:	e7932002 	ldr	r2, [r3, r2]
    c348:	e3520000 	cmp	r2, #0
    c34c:	012fff1e 	bxeq	lr
    c350:	eaffff44 	b	c068 <_init+0xe0>
    c354:	0000bcb8 	.word	0x0000bcb8
    c358:	0000012c 	.word	0x0000012c

0000c35c <deregister_tm_clones>:
    c35c:	4b07      	ldr	r3, [pc, #28]	; (c37c <deregister_tm_clones+0x20>)
    c35e:	f248 1054 	movw	r0, #33108	; 0x8154
    c362:	f2c0 0001 	movt	r0, #1
    c366:	1a1b      	subs	r3, r3, r0
    c368:	2b06      	cmp	r3, #6
    c36a:	d800      	bhi.n	c36e <deregister_tm_clones+0x12>
    c36c:	4770      	bx	lr
    c36e:	f240 0300 	movw	r3, #0
    c372:	f2c0 0300 	movt	r3, #0
    c376:	2b00      	cmp	r3, #0
    c378:	d0f8      	beq.n	c36c <deregister_tm_clones+0x10>
    c37a:	4718      	bx	r3
    c37c:	00018157 	.word	0x00018157

0000c380 <register_tm_clones>:
    c380:	f248 1354 	movw	r3, #33108	; 0x8154
    c384:	f248 1054 	movw	r0, #33108	; 0x8154
    c388:	f2c0 0301 	movt	r3, #1
    c38c:	f2c0 0001 	movt	r0, #1
    c390:	1a1b      	subs	r3, r3, r0
    c392:	109b      	asrs	r3, r3, #2
    c394:	eb03 73d3 	add.w	r3, r3, r3, lsr #31
    c398:	1059      	asrs	r1, r3, #1
    c39a:	d100      	bne.n	c39e <register_tm_clones+0x1e>
    c39c:	4770      	bx	lr
    c39e:	f240 0200 	movw	r2, #0
    c3a2:	f2c0 0200 	movt	r2, #0
    c3a6:	2a00      	cmp	r2, #0
    c3a8:	d0f8      	beq.n	c39c <register_tm_clones+0x1c>
    c3aa:	4710      	bx	r2

0000c3ac <__do_global_dtors_aux>:
    c3ac:	b510      	push	{r4, lr}
    c3ae:	f248 3448 	movw	r4, #33608	; 0x8348
    c3b2:	f2c0 0401 	movt	r4, #1
    c3b6:	7823      	ldrb	r3, [r4, #0]
    c3b8:	b91b      	cbnz	r3, c3c2 <__do_global_dtors_aux+0x16>
    c3ba:	f7ff ffcf 	bl	c35c <deregister_tm_clones>
    c3be:	2301      	movs	r3, #1
    c3c0:	7023      	strb	r3, [r4, #0]
    c3c2:	bd10      	pop	{r4, pc}

0000c3c4 <frame_dummy>:
    c3c4:	f647 60c4 	movw	r0, #32452	; 0x7ec4
    c3c8:	f2c0 0001 	movt	r0, #1
    c3cc:	b508      	push	{r3, lr}
    c3ce:	6803      	ldr	r3, [r0, #0]
    c3d0:	b12b      	cbz	r3, c3de <frame_dummy+0x1a>
    c3d2:	f240 0300 	movw	r3, #0
    c3d6:	f2c0 0300 	movt	r3, #0
    c3da:	b103      	cbz	r3, c3de <frame_dummy+0x1a>
    c3dc:	4798      	blx	r3
    c3de:	e8bd 4008 	ldmia.w	sp!, {r3, lr}
    c3e2:	e7cd      	b.n	c380 <register_tm_clones>
    c3e4:	0000      	movs	r0, r0
	...

0000c3e8 <_ZN9__gnu_cxxL18__exchange_and_addEPVii>:
    c3e8:	b480      	push	{r7}
    c3ea:	b083      	sub	sp, #12
    c3ec:	af00      	add	r7, sp, #0
    c3ee:	6078      	str	r0, [r7, #4]
    c3f0:	6039      	str	r1, [r7, #0]
    c3f2:	6839      	ldr	r1, [r7, #0]
    c3f4:	687b      	ldr	r3, [r7, #4]
    c3f6:	f3bf 8f5f 	dmb	sy
    c3fa:	e853 2f00 	ldrex	r2, [r3]
    c3fe:	eb02 0001 	add.w	r0, r2, r1
    c402:	e843 0c00 	strex	ip, r0, [r3]
    c406:	f1bc 0f00 	cmp.w	ip, #0
    c40a:	d1f6      	bne.n	c3fa <_ZN9__gnu_cxxL18__exchange_and_addEPVii+0x12>
    c40c:	f3bf 8f5f 	dmb	sy
    c410:	4613      	mov	r3, r2
    c412:	4618      	mov	r0, r3
    c414:	370c      	adds	r7, #12
    c416:	46bd      	mov	sp, r7
    c418:	f85d 7b04 	ldr.w	r7, [sp], #4
    c41c:	4770      	bx	lr
    c41e:	bf00      	nop

0000c420 <_ZN2cvL28morphologyDefaultBorderValueEv>:
    c420:	b580      	push	{r7, lr}
    c422:	b082      	sub	sp, #8
    c424:	af00      	add	r7, sp, #0
    c426:	6078      	str	r0, [r7, #4]
    c428:	687b      	ldr	r3, [r7, #4]
    c42a:	4618      	mov	r0, r3
    c42c:	ed9f 0b04 	vldr	d0, [pc, #16]	; c440 <_ZN2cvL28morphologyDefaultBorderValueEv+0x20>
    c430:	f001 fed4 	bl	e1dc <_ZN2cv7Scalar_IdE3allEd>
    c434:	6878      	ldr	r0, [r7, #4]
    c436:	3708      	adds	r7, #8
    c438:	46bd      	mov	sp, r7
    c43a:	bd80      	pop	{r7, pc}
    c43c:	f3af 8000 	nop.w
    c440:	ffffffff 	.word	0xffffffff
    c444:	7fefffff 	.word	0x7fefffff

0000c448 <_Z10cpuProcessRN2cv3MatES1_RSt6vectorINS_3VecIfLi3EEESaIS4_EE>:
    c448:	b590      	push	{r4, r7, lr}
    c44a:	ed2d 8b04 	vpush	{d8-d9}
    c44e:	b0ad      	sub	sp, #180	; 0xb4
    c450:	af04      	add	r7, sp, #16
    c452:	60f8      	str	r0, [r7, #12]
    c454:	60b9      	str	r1, [r7, #8]
    c456:	607a      	str	r2, [r7, #4]
    c458:	f107 0368 	add.w	r3, r7, #104	; 0x68
    c45c:	4618      	mov	r0, r3
    c45e:	f001 fd1b 	bl	de98 <_ZN2cv3MatC1Ev>
    c462:	f107 0314 	add.w	r3, r7, #20
    c466:	4618      	mov	r0, r3
    c468:	f001 fee0 	bl	e22c <_ZNSt6vectorIN2cv3MatESaIS1_EEC1Ev>
    c46c:	f107 0314 	add.w	r3, r7, #20
    c470:	68f8      	ldr	r0, [r7, #12]
    c472:	4619      	mov	r1, r3
    c474:	f7ff ee04 	blx	c080 <_init+0xf8>
    c478:	f248 1340 	movw	r3, #33088	; 0x8140
    c47c:	f2c0 0301 	movt	r3, #1
    c480:	681a      	ldr	r2, [r3, #0]
    c482:	f246 6367 	movw	r3, #26215	; 0x6667
    c486:	f2c6 6366 	movt	r3, #26214	; 0x6666
    c48a:	fb83 1302 	smull	r1, r3, r3, r2
    c48e:	1099      	asrs	r1, r3, #2
    c490:	17d3      	asrs	r3, r2, #31
    c492:	1acb      	subs	r3, r1, r3
    c494:	ee06 3a90 	vmov	s13, r3
    c498:	eeb8 7be6 	vcvt.f64.s32	d7, s13
    c49c:	f248 3350 	movw	r3, #33616	; 0x8350
    c4a0:	f2c0 0301 	movt	r3, #1
    c4a4:	ed83 7b00 	vstr	d7, [r3]
    c4a8:	f248 1344 	movw	r3, #33092	; 0x8144
    c4ac:	f2c0 0301 	movt	r3, #1
    c4b0:	681a      	ldr	r2, [r3, #0]
    c4b2:	f246 6367 	movw	r3, #26215	; 0x6667
    c4b6:	f2c6 6366 	movt	r3, #26214	; 0x6666
    c4ba:	fb83 1302 	smull	r1, r3, r3, r2
    c4be:	1099      	asrs	r1, r3, #2
    c4c0:	17d3      	asrs	r3, r2, #31
    c4c2:	1acb      	subs	r3, r1, r3
    c4c4:	ee06 3a90 	vmov	s13, r3
    c4c8:	eeb8 7be6 	vcvt.f64.s32	d7, s13
    c4cc:	f248 3358 	movw	r3, #33624	; 0x8358
    c4d0:	f2c0 0301 	movt	r3, #1
    c4d4:	ed83 7b00 	vstr	d7, [r3]
    c4d8:	f107 0314 	add.w	r3, r7, #20
    c4dc:	4618      	mov	r0, r3
    c4de:	2100      	movs	r1, #0
    c4e0:	f001 ff04 	bl	e2ec <_ZNSt6vectorIN2cv3MatESaIS1_EEixEj>
    c4e4:	4603      	mov	r3, r0
    c4e6:	f107 0220 	add.w	r2, r7, #32
    c4ea:	4610      	mov	r0, r2
    c4ec:	4619      	mov	r1, r3
    c4ee:	f7ff ee1c 	blx	c128 <_init+0x1a0>
    c4f2:	f248 3350 	movw	r3, #33616	; 0x8350
    c4f6:	f2c0 0301 	movt	r3, #1
    c4fa:	ed93 9b00 	vldr	d9, [r3]
    c4fe:	f107 0314 	add.w	r3, r7, #20
    c502:	4618      	mov	r0, r3
    c504:	2101      	movs	r1, #1
    c506:	f001 fef1 	bl	e2ec <_ZNSt6vectorIN2cv3MatESaIS1_EEixEj>
    c50a:	4603      	mov	r3, r0
    c50c:	f107 0234 	add.w	r2, r7, #52	; 0x34
    c510:	4610      	mov	r0, r2
    c512:	4619      	mov	r1, r3
    c514:	f7ff ee08 	blx	c128 <_init+0x1a0>
    c518:	f248 3358 	movw	r3, #33624	; 0x8358
    c51c:	f2c0 0301 	movt	r3, #1
    c520:	ed93 8b00 	vldr	d8, [r3]
    c524:	f107 0248 	add.w	r2, r7, #72	; 0x48
    c528:	f107 0368 	add.w	r3, r7, #104	; 0x68
    c52c:	4610      	mov	r0, r2
    c52e:	4619      	mov	r1, r3
    c530:	f7ff ed7c 	blx	c02c <_init+0xa4>
    c534:	f107 0120 	add.w	r1, r7, #32
    c538:	f107 0234 	add.w	r2, r7, #52	; 0x34
    c53c:	f107 0348 	add.w	r3, r7, #72	; 0x48
    c540:	4608      	mov	r0, r1
    c542:	eeb0 0b49 	vmov.f64	d0, d9
    c546:	4611      	mov	r1, r2
    c548:	eeb0 1b48 	vmov.f64	d1, d8
    c54c:	ed9f 2bb2 	vldr	d2, [pc, #712]	; c818 <_Z10cpuProcessRN2cv3MatES1_RSt6vectorINS_3VecIfLi3EEESaIS4_EE+0x3d0>
    c550:	461a      	mov	r2, r3
    c552:	f04f 33ff 	mov.w	r3, #4294967295
    c556:	f7ff eec6 	blx	c2e4 <_init+0x35c>
    c55a:	f107 0314 	add.w	r3, r7, #20
    c55e:	4618      	mov	r0, r3
    c560:	2102      	movs	r1, #2
    c562:	f001 fec3 	bl	e2ec <_ZNSt6vectorIN2cv3MatESaIS1_EEixEj>
    c566:	4603      	mov	r3, r0
    c568:	f107 0220 	add.w	r2, r7, #32
    c56c:	4610      	mov	r0, r2
    c56e:	4619      	mov	r1, r3
    c570:	f7ff edda 	blx	c128 <_init+0x1a0>
    c574:	f107 0234 	add.w	r2, r7, #52	; 0x34
    c578:	f107 0368 	add.w	r3, r7, #104	; 0x68
    c57c:	4610      	mov	r0, r2
    c57e:	4619      	mov	r1, r3
    c580:	f7ff edd2 	blx	c128 <_init+0x1a0>
    c584:	f107 0348 	add.w	r3, r7, #72	; 0x48
    c588:	4618      	mov	r0, r3
    c58a:	68f9      	ldr	r1, [r7, #12]
    c58c:	f7ff ed4e 	blx	c02c <_init+0xa4>
    c590:	f7ff ee84 	blx	c29c <_init+0x314>
    c594:	4603      	mov	r3, r0
    c596:	f107 0020 	add.w	r0, r7, #32
    c59a:	f107 0134 	add.w	r1, r7, #52	; 0x34
    c59e:	f107 0248 	add.w	r2, r7, #72	; 0x48
    c5a2:	f04f 34ff 	mov.w	r4, #4294967295
    c5a6:	9400      	str	r4, [sp, #0]
    c5a8:	f7ff ee06 	blx	c1b8 <_init+0x230>
    c5ac:	f248 133c 	movw	r3, #33084	; 0x813c
    c5b0:	f2c0 0301 	movt	r3, #1
    c5b4:	6819      	ldr	r1, [r3, #0]
    c5b6:	f248 1338 	movw	r3, #33080	; 0x8138
    c5ba:	f2c0 0301 	movt	r3, #1
    c5be:	681a      	ldr	r2, [r3, #0]
    c5c0:	f248 1348 	movw	r3, #33096	; 0x8148
    c5c4:	f2c0 0301 	movt	r3, #1
    c5c8:	681b      	ldr	r3, [r3, #0]
    c5ca:	68f8      	ldr	r0, [r7, #12]
    c5cc:	f000 fb86 	bl	ccdc <_Z14dilateAndErodeRN2cv3MatEiii>
    c5d0:	f107 0320 	add.w	r3, r7, #32
    c5d4:	4618      	mov	r0, r3
    c5d6:	f7ff ee2c 	blx	c230 <_init+0x2a8>
    c5da:	f107 0234 	add.w	r2, r7, #52	; 0x34
    c5de:	f107 0320 	add.w	r3, r7, #32
    c5e2:	4610      	mov	r0, r2
    c5e4:	f64e 3140 	movw	r1, #60224	; 0xeb40
    c5e8:	f2c0 0100 	movt	r1, #0
    c5ec:	461a      	mov	r2, r3
    c5ee:	f7ff ee6e 	blx	c2cc <_init+0x344>
    c5f2:	f107 0348 	add.w	r3, r7, #72	; 0x48
    c5f6:	4618      	mov	r0, r3
    c5f8:	68f9      	ldr	r1, [r7, #12]
    c5fa:	f7ff ed96 	blx	c128 <_init+0x1a0>
    c5fe:	f107 0234 	add.w	r2, r7, #52	; 0x34
    c602:	f107 0348 	add.w	r3, r7, #72	; 0x48
    c606:	4610      	mov	r0, r2
    c608:	4619      	mov	r1, r3
    c60a:	f7ff ed76 	blx	c0f8 <_init+0x170>
    c60e:	f107 0334 	add.w	r3, r7, #52	; 0x34
    c612:	4618      	mov	r0, r3
    c614:	f7ff ee54 	blx	c2c0 <_init+0x338>
    c618:	f107 0320 	add.w	r3, r7, #32
    c61c:	4618      	mov	r0, r3
    c61e:	f7ff ee6e 	blx	c2fc <_init+0x374>
    c622:	f107 0334 	add.w	r3, r7, #52	; 0x34
    c626:	4618      	mov	r0, r3
    c628:	68f9      	ldr	r1, [r7, #12]
    c62a:	f7ff ed7e 	blx	c128 <_init+0x1a0>
    c62e:	f107 0348 	add.w	r3, r7, #72	; 0x48
    c632:	4618      	mov	r0, r3
    c634:	6879      	ldr	r1, [r7, #4]
    c636:	f001 fe6d 	bl	e314 <_ZN2cv12_OutputArrayC1INS_3VecIfLi3EEEEERSt6vectorIT_SaIS5_EE>
    c63a:	f248 134c 	movw	r3, #33100	; 0x814c
    c63e:	f2c0 0301 	movt	r3, #1
    c642:	681b      	ldr	r3, [r3, #0]
    c644:	ee06 3a90 	vmov	s13, r3
    c648:	eeb8 7be6 	vcvt.f64.s32	d7, s13
    c64c:	f107 0234 	add.w	r2, r7, #52	; 0x34
    c650:	f107 0348 	add.w	r3, r7, #72	; 0x48
    c654:	2100      	movs	r1, #0
    c656:	9100      	str	r1, [sp, #0]
    c658:	4610      	mov	r0, r2
    c65a:	4619      	mov	r1, r3
    c65c:	2203      	movs	r2, #3
    c65e:	eeb7 0b00 	vmov.f64	d0, #112	; 0x70
    c662:	ed9f 1b6f 	vldr	d1, [pc, #444]	; c820 <_Z10cpuProcessRN2cv3MatES1_RSt6vectorINS_3VecIfLi3EEESaIS4_EE+0x3d8>
    c666:	ed9f 2b70 	vldr	d2, [pc, #448]	; c828 <_Z10cpuProcessRN2cv3MatES1_RSt6vectorINS_3VecIfLi3EEESaIS4_EE+0x3e0>
    c66a:	eeb0 3b47 	vmov.f64	d3, d7
    c66e:	2300      	movs	r3, #0
    c670:	f7ff ecca 	blx	c008 <_init+0x80>
    c674:	2300      	movs	r3, #0
    c676:	613b      	str	r3, [r7, #16]
    c678:	e095      	b.n	c7a6 <_Z10cpuProcessRN2cv3MatES1_RSt6vectorINS_3VecIfLi3EEESaIS4_EE+0x35e>
    c67a:	6878      	ldr	r0, [r7, #4]
    c67c:	6939      	ldr	r1, [r7, #16]
    c67e:	f001 fe75 	bl	e36c <_ZNSt6vectorIN2cv3VecIfLi3EEESaIS2_EEixEj>
    c682:	4603      	mov	r3, r0
    c684:	4618      	mov	r0, r3
    c686:	2100      	movs	r1, #0
    c688:	f001 fe84 	bl	e394 <_ZN2cv3VecIfLi3EEixEi>
    c68c:	4603      	mov	r3, r0
    c68e:	edd3 7a00 	vldr	s15, [r3]
    c692:	eeb7 7ae7 	vcvt.f64.f32	d7, s15
    c696:	eeb0 0b47 	vmov.f64	d0, d7
    c69a:	f001 fb3d 	bl	dd18 <_Z7cvRoundd>
    c69e:	4604      	mov	r4, r0
    c6a0:	6878      	ldr	r0, [r7, #4]
    c6a2:	6939      	ldr	r1, [r7, #16]
    c6a4:	f001 fe62 	bl	e36c <_ZNSt6vectorIN2cv3VecIfLi3EEESaIS2_EEixEj>
    c6a8:	4603      	mov	r3, r0
    c6aa:	4618      	mov	r0, r3
    c6ac:	2101      	movs	r1, #1
    c6ae:	f001 fe71 	bl	e394 <_ZN2cv3VecIfLi3EEixEi>
    c6b2:	4603      	mov	r3, r0
    c6b4:	edd3 7a00 	vldr	s15, [r3]
    c6b8:	eeb7 7ae7 	vcvt.f64.f32	d7, s15
    c6bc:	eeb0 0b47 	vmov.f64	d0, d7
    c6c0:	f001 fb2a 	bl	dd18 <_Z7cvRoundd>
    c6c4:	4603      	mov	r3, r0
    c6c6:	f107 0220 	add.w	r2, r7, #32
    c6ca:	4610      	mov	r0, r2
    c6cc:	4621      	mov	r1, r4
    c6ce:	461a      	mov	r2, r3
    c6d0:	f001 fd5c 	bl	e18c <_ZN2cv6Point_IiEC1Eii>
    c6d4:	6878      	ldr	r0, [r7, #4]
    c6d6:	6939      	ldr	r1, [r7, #16]
    c6d8:	f001 fe48 	bl	e36c <_ZNSt6vectorIN2cv3VecIfLi3EEESaIS2_EEixEj>
    c6dc:	4603      	mov	r3, r0
    c6de:	4618      	mov	r0, r3
    c6e0:	2102      	movs	r1, #2
    c6e2:	f001 fe57 	bl	e394 <_ZN2cv3VecIfLi3EEixEi>
    c6e6:	4603      	mov	r3, r0
    c6e8:	edd3 7a00 	vldr	s15, [r3]
    c6ec:	eeb7 7ae7 	vcvt.f64.f32	d7, s15
    c6f0:	eeb0 0b47 	vmov.f64	d0, d7
    c6f4:	f001 fb10 	bl	dd18 <_Z7cvRoundd>
    c6f8:	4602      	mov	r2, r0
    c6fa:	f248 1350 	movw	r3, #33104	; 0x8150
    c6fe:	f2c0 0301 	movt	r3, #1
    c702:	601a      	str	r2, [r3, #0]
    c704:	f107 0234 	add.w	r2, r7, #52	; 0x34
    c708:	f107 0320 	add.w	r3, r7, #32
    c70c:	4610      	mov	r0, r2
    c70e:	4619      	mov	r1, r3
    c710:	f001 fd28 	bl	e164 <_ZN2cv6Point_IiEC1ERKS1_>
    c714:	f107 0348 	add.w	r3, r7, #72	; 0x48
    c718:	4618      	mov	r0, r3
    c71a:	ed9f 0b3f 	vldr	d0, [pc, #252]	; c818 <_Z10cpuProcessRN2cv3MatES1_RSt6vectorINS_3VecIfLi3EEESaIS4_EE+0x3d0>
    c71e:	ed9f 1b44 	vldr	d1, [pc, #272]	; c830 <_Z10cpuProcessRN2cv3MatES1_RSt6vectorINS_3VecIfLi3EEESaIS4_EE+0x3e8>
    c722:	ed9f 2b43 	vldr	d2, [pc, #268]	; c830 <_Z10cpuProcessRN2cv3MatES1_RSt6vectorINS_3VecIfLi3EEESaIS4_EE+0x3e8>
    c726:	ed9f 3b3c 	vldr	d3, [pc, #240]	; c818 <_Z10cpuProcessRN2cv3MatES1_RSt6vectorINS_3VecIfLi3EEESaIS4_EE+0x3d0>
    c72a:	f001 fe43 	bl	e3b4 <_ZN2cv7Scalar_IdEC1Edddd>
    c72e:	f107 0234 	add.w	r2, r7, #52	; 0x34
    c732:	f107 0348 	add.w	r3, r7, #72	; 0x48
    c736:	f04f 31ff 	mov.w	r1, #4294967295
    c73a:	9100      	str	r1, [sp, #0]
    c73c:	2108      	movs	r1, #8
    c73e:	9101      	str	r1, [sp, #4]
    c740:	2100      	movs	r1, #0
    c742:	9102      	str	r1, [sp, #8]
    c744:	68b8      	ldr	r0, [r7, #8]
    c746:	4611      	mov	r1, r2
    c748:	2203      	movs	r2, #3
    c74a:	f7ff ec4c 	blx	bfe4 <_init+0x5c>
    c74e:	f107 0234 	add.w	r2, r7, #52	; 0x34
    c752:	f107 0320 	add.w	r3, r7, #32
    c756:	4610      	mov	r0, r2
    c758:	4619      	mov	r1, r3
    c75a:	f001 fd03 	bl	e164 <_ZN2cv6Point_IiEC1ERKS1_>
    c75e:	f248 1350 	movw	r3, #33104	; 0x8150
    c762:	f2c0 0301 	movt	r3, #1
    c766:	681c      	ldr	r4, [r3, #0]
    c768:	f107 0348 	add.w	r3, r7, #72	; 0x48
    c76c:	4618      	mov	r0, r3
    c76e:	ed9f 0b2a 	vldr	d0, [pc, #168]	; c818 <_Z10cpuProcessRN2cv3MatES1_RSt6vectorINS_3VecIfLi3EEESaIS4_EE+0x3d0>
    c772:	ed9f 1b2f 	vldr	d1, [pc, #188]	; c830 <_Z10cpuProcessRN2cv3MatES1_RSt6vectorINS_3VecIfLi3EEESaIS4_EE+0x3e8>
    c776:	ed9f 2b2e 	vldr	d2, [pc, #184]	; c830 <_Z10cpuProcessRN2cv3MatES1_RSt6vectorINS_3VecIfLi3EEESaIS4_EE+0x3e8>
    c77a:	ed9f 3b27 	vldr	d3, [pc, #156]	; c818 <_Z10cpuProcessRN2cv3MatES1_RSt6vectorINS_3VecIfLi3EEESaIS4_EE+0x3d0>
    c77e:	f001 fe19 	bl	e3b4 <_ZN2cv7Scalar_IdEC1Edddd>
    c782:	f107 0234 	add.w	r2, r7, #52	; 0x34
    c786:	f107 0348 	add.w	r3, r7, #72	; 0x48
    c78a:	2103      	movs	r1, #3
    c78c:	9100      	str	r1, [sp, #0]
    c78e:	2108      	movs	r1, #8
    c790:	9101      	str	r1, [sp, #4]
    c792:	2100      	movs	r1, #0
    c794:	9102      	str	r1, [sp, #8]
    c796:	68b8      	ldr	r0, [r7, #8]
    c798:	4611      	mov	r1, r2
    c79a:	4622      	mov	r2, r4
    c79c:	f7ff ec22 	blx	bfe4 <_init+0x5c>
    c7a0:	693b      	ldr	r3, [r7, #16]
    c7a2:	3301      	adds	r3, #1
    c7a4:	613b      	str	r3, [r7, #16]
    c7a6:	6878      	ldr	r0, [r7, #4]
    c7a8:	f001 fdc8 	bl	e33c <_ZNKSt6vectorIN2cv3VecIfLi3EEESaIS2_EE4sizeEv>
    c7ac:	4602      	mov	r2, r0
    c7ae:	693b      	ldr	r3, [r7, #16]
    c7b0:	429a      	cmp	r2, r3
    c7b2:	bf8c      	ite	hi
    c7b4:	2301      	movhi	r3, #1
    c7b6:	2300      	movls	r3, #0
    c7b8:	b2db      	uxtb	r3, r3
    c7ba:	2b00      	cmp	r3, #0
    c7bc:	f47f af5d 	bne.w	c67a <_Z10cpuProcessRN2cv3MatES1_RSt6vectorINS_3VecIfLi3EEESaIS4_EE+0x232>
    c7c0:	f107 0314 	add.w	r3, r7, #20
    c7c4:	4618      	mov	r0, r3
    c7c6:	f001 fd3f 	bl	e248 <_ZNSt6vectorIN2cv3MatESaIS1_EED1Ev>
    c7ca:	f107 0368 	add.w	r3, r7, #104	; 0x68
    c7ce:	4618      	mov	r0, r3
    c7d0:	f001 fb7c 	bl	decc <_ZN2cv3MatD1Ev>
    c7d4:	e018      	b.n	c808 <_Z10cpuProcessRN2cv3MatES1_RSt6vectorINS_3VecIfLi3EEESaIS4_EE+0x3c0>
    c7d6:	f107 0334 	add.w	r3, r7, #52	; 0x34
    c7da:	4618      	mov	r0, r3
    c7dc:	f7ff ed70 	blx	c2c0 <_init+0x338>
    c7e0:	e7ff      	b.n	c7e2 <_Z10cpuProcessRN2cv3MatES1_RSt6vectorINS_3VecIfLi3EEESaIS4_EE+0x39a>
    c7e2:	f107 0320 	add.w	r3, r7, #32
    c7e6:	4618      	mov	r0, r3
    c7e8:	f7ff ed88 	blx	c2fc <_init+0x374>
    c7ec:	e7ff      	b.n	c7ee <_Z10cpuProcessRN2cv3MatES1_RSt6vectorINS_3VecIfLi3EEESaIS4_EE+0x3a6>
    c7ee:	f107 0314 	add.w	r3, r7, #20
    c7f2:	4618      	mov	r0, r3
    c7f4:	f001 fd28 	bl	e248 <_ZNSt6vectorIN2cv3MatESaIS1_EED1Ev>
    c7f8:	e7ff      	b.n	c7fa <_Z10cpuProcessRN2cv3MatES1_RSt6vectorINS_3VecIfLi3EEESaIS4_EE+0x3b2>
    c7fa:	f107 0368 	add.w	r3, r7, #104	; 0x68
    c7fe:	4618      	mov	r0, r3
    c800:	f001 fb64 	bl	decc <_ZN2cv3MatD1Ev>
    c804:	f7ff ed1a 	blx	c23c <_init+0x2b4>
    c808:	37a4      	adds	r7, #164	; 0xa4
    c80a:	46bd      	mov	sp, r7
    c80c:	ecbd 8b04 	vpop	{d8-d9}
    c810:	bd90      	pop	{r4, r7, pc}
    c812:	bf00      	nop
    c814:	f3af 8000 	nop.w
	...
    c824:	40690000 	.word	0x40690000
    c828:	00000000 	.word	0x00000000
    c82c:	40590000 	.word	0x40590000
    c830:	00000000 	.word	0x00000000
    c834:	40600000 	.word	0x40600000

0000c838 <_Z10gpuProcessRN2cv3MatES1_>:
    c838:	b5b0      	push	{r4, r5, r7, lr}
    c83a:	ed2d 8b04 	vpush	{d8-d9}
    c83e:	b0c8      	sub	sp, #288	; 0x120
    c840:	af04      	add	r7, sp, #16
    c842:	1d3b      	adds	r3, r7, #4
    c844:	6018      	str	r0, [r3, #0]
    c846:	463b      	mov	r3, r7
    c848:	6019      	str	r1, [r3, #0]
    c84a:	f107 03d8 	add.w	r3, r7, #216	; 0xd8
    c84e:	4618      	mov	r0, r3
    c850:	f001 fb22 	bl	de98 <_ZN2cv3MatC1Ev>
    c854:	f107 0338 	add.w	r3, r7, #56	; 0x38
    c858:	4618      	mov	r0, r3
    c85a:	f001 fc3b 	bl	e0d4 <_ZN2cv3gpu6GpuMatC1Ev>
    c85e:	f107 0358 	add.w	r3, r7, #88	; 0x58
    c862:	4618      	mov	r0, r3
    c864:	f001 fc36 	bl	e0d4 <_ZN2cv3gpu6GpuMatC1Ev>
    c868:	f107 0378 	add.w	r3, r7, #120	; 0x78
    c86c:	4618      	mov	r0, r3
    c86e:	f001 fc31 	bl	e0d4 <_ZN2cv3gpu6GpuMatC1Ev>
    c872:	f107 0238 	add.w	r2, r7, #56	; 0x38
    c876:	1d3b      	adds	r3, r7, #4
    c878:	4610      	mov	r0, r2
    c87a:	6819      	ldr	r1, [r3, #0]
    c87c:	f7ff ecae 	blx	c1dc <_init+0x254>
    c880:	f107 0320 	add.w	r3, r7, #32
    c884:	4618      	mov	r0, r3
    c886:	f001 fd01 	bl	e28c <_ZNSt6vectorIN2cv3gpu6GpuMatESaIS2_EEC1Ev>
    c88a:	f7ff ec66 	blx	c158 <_init+0x1d0>
    c88e:	4603      	mov	r3, r0
    c890:	f107 0138 	add.w	r1, r7, #56	; 0x38
    c894:	f107 0220 	add.w	r2, r7, #32
    c898:	4608      	mov	r0, r1
    c89a:	4611      	mov	r1, r2
    c89c:	461a      	mov	r2, r3
    c89e:	f7ff ecbc 	blx	c218 <_init+0x290>
    c8a2:	f248 1340 	movw	r3, #33088	; 0x8140
    c8a6:	f2c0 0301 	movt	r3, #1
    c8aa:	681a      	ldr	r2, [r3, #0]
    c8ac:	f246 6367 	movw	r3, #26215	; 0x6667
    c8b0:	f2c6 6366 	movt	r3, #26214	; 0x6666
    c8b4:	fb83 1302 	smull	r1, r3, r3, r2
    c8b8:	1099      	asrs	r1, r3, #2
    c8ba:	17d3      	asrs	r3, r2, #31
    c8bc:	1acb      	subs	r3, r1, r3
    c8be:	ee06 3a90 	vmov	s13, r3
    c8c2:	eeb8 7be6 	vcvt.f64.s32	d7, s13
    c8c6:	f248 3350 	movw	r3, #33616	; 0x8350
    c8ca:	f2c0 0301 	movt	r3, #1
    c8ce:	ed83 7b00 	vstr	d7, [r3]
    c8d2:	f248 1344 	movw	r3, #33092	; 0x8144
    c8d6:	f2c0 0301 	movt	r3, #1
    c8da:	681a      	ldr	r2, [r3, #0]
    c8dc:	f246 6367 	movw	r3, #26215	; 0x6667
    c8e0:	f2c6 6366 	movt	r3, #26214	; 0x6666
    c8e4:	fb83 1302 	smull	r1, r3, r3, r2
    c8e8:	1099      	asrs	r1, r3, #2
    c8ea:	17d3      	asrs	r3, r2, #31
    c8ec:	1acb      	subs	r3, r1, r3
    c8ee:	ee06 3a90 	vmov	s13, r3
    c8f2:	eeb8 7be6 	vcvt.f64.s32	d7, s13
    c8f6:	f248 3358 	movw	r3, #33624	; 0x8358
    c8fa:	f2c0 0301 	movt	r3, #1
    c8fe:	ed83 7b00 	vstr	d7, [r3]
    c902:	f107 0320 	add.w	r3, r7, #32
    c906:	4618      	mov	r0, r3
    c908:	2100      	movs	r1, #0
    c90a:	f001 fd7d 	bl	e408 <_ZNSt6vectorIN2cv3gpu6GpuMatESaIS2_EEixEj>
    c90e:	4605      	mov	r5, r0
    c910:	f248 3350 	movw	r3, #33616	; 0x8350
    c914:	f2c0 0301 	movt	r3, #1
    c918:	ed93 9b00 	vldr	d9, [r3]
    c91c:	f107 0320 	add.w	r3, r7, #32
    c920:	4618      	mov	r0, r3
    c922:	2101      	movs	r1, #1
    c924:	f001 fd70 	bl	e408 <_ZNSt6vectorIN2cv3gpu6GpuMatESaIS2_EEixEj>
    c928:	4604      	mov	r4, r0
    c92a:	f248 3358 	movw	r3, #33624	; 0x8358
    c92e:	f2c0 0301 	movt	r3, #1
    c932:	ed93 8b00 	vldr	d8, [r3]
    c936:	f7ff ec10 	blx	c158 <_init+0x1d0>
    c93a:	4602      	mov	r2, r0
    c93c:	f107 0378 	add.w	r3, r7, #120	; 0x78
    c940:	9200      	str	r2, [sp, #0]
    c942:	4628      	mov	r0, r5
    c944:	eeb0 0b49 	vmov.f64	d0, d9
    c948:	4621      	mov	r1, r4
    c94a:	eeb0 1b48 	vmov.f64	d1, d8
    c94e:	ed9f 2bde 	vldr	d2, [pc, #888]	; ccc8 <_Z10gpuProcessRN2cv3MatES1_+0x490>
    c952:	461a      	mov	r2, r3
    c954:	f04f 33ff 	mov.w	r3, #4294967295
    c958:	f7ff ec34 	blx	c1c4 <_init+0x23c>
    c95c:	f107 0320 	add.w	r3, r7, #32
    c960:	4618      	mov	r0, r3
    c962:	2102      	movs	r1, #2
    c964:	f001 fd50 	bl	e408 <_ZNSt6vectorIN2cv3gpu6GpuMatESaIS2_EEixEj>
    c968:	4604      	mov	r4, r0
    c96a:	f107 0398 	add.w	r3, r7, #152	; 0x98
    c96e:	4618      	mov	r0, r3
    c970:	f001 fbb0 	bl	e0d4 <_ZN2cv3gpu6GpuMatC1Ev>
    c974:	f7ff ebf0 	blx	c158 <_init+0x1d0>
    c978:	f107 0178 	add.w	r1, r7, #120	; 0x78
    c97c:	f107 0258 	add.w	r2, r7, #88	; 0x58
    c980:	f107 0398 	add.w	r3, r7, #152	; 0x98
    c984:	f04f 35ff 	mov.w	r5, #4294967295
    c988:	9500      	str	r5, [sp, #0]
    c98a:	9001      	str	r0, [sp, #4]
    c98c:	4620      	mov	r0, r4
    c98e:	f7ff ec38 	blx	c200 <_init+0x278>
    c992:	f107 0398 	add.w	r3, r7, #152	; 0x98
    c996:	4618      	mov	r0, r3
    c998:	f001 fbc0 	bl	e11c <_ZN2cv3gpu6GpuMatD1Ev>
    c99c:	f248 133c 	movw	r3, #33084	; 0x813c
    c9a0:	f2c0 0301 	movt	r3, #1
    c9a4:	6819      	ldr	r1, [r3, #0]
    c9a6:	f248 1338 	movw	r3, #33080	; 0x8138
    c9aa:	f2c0 0301 	movt	r3, #1
    c9ae:	681a      	ldr	r2, [r3, #0]
    c9b0:	f248 1348 	movw	r3, #33096	; 0x8148
    c9b4:	f2c0 0301 	movt	r3, #1
    c9b8:	681b      	ldr	r3, [r3, #0]
    c9ba:	f107 0058 	add.w	r0, r7, #88	; 0x58
    c9be:	f000 fa59 	bl	ce74 <_Z17gpuDilateAndErodeRN2cv3gpu6GpuMatEiii>
    c9c2:	f107 0258 	add.w	r2, r7, #88	; 0x58
    c9c6:	f107 03d8 	add.w	r3, r7, #216	; 0xd8
    c9ca:	4610      	mov	r0, r2
    c9cc:	4619      	mov	r1, r3
    c9ce:	f7ff eaf8 	blx	bfc0 <_init+0x38>
    c9d2:	f107 0398 	add.w	r3, r7, #152	; 0x98
    c9d6:	4618      	mov	r0, r3
    c9d8:	f7ff ec2a 	blx	c230 <_init+0x2a8>
    c9dc:	f107 0218 	add.w	r2, r7, #24
    c9e0:	f107 0398 	add.w	r3, r7, #152	; 0x98
    c9e4:	4610      	mov	r0, r2
    c9e6:	f64e 3140 	movw	r1, #60224	; 0xeb40
    c9ea:	f2c0 0100 	movt	r1, #0
    c9ee:	461a      	mov	r2, r3
    c9f0:	f7ff ec6c 	blx	c2cc <_init+0x344>
    c9f4:	f107 02b8 	add.w	r2, r7, #184	; 0xb8
    c9f8:	f107 03d8 	add.w	r3, r7, #216	; 0xd8
    c9fc:	4610      	mov	r0, r2
    c9fe:	4619      	mov	r1, r3
    ca00:	f7ff eb92 	blx	c128 <_init+0x1a0>
    ca04:	f107 0218 	add.w	r2, r7, #24
    ca08:	f107 03b8 	add.w	r3, r7, #184	; 0xb8
    ca0c:	4610      	mov	r0, r2
    ca0e:	4619      	mov	r1, r3
    ca10:	f7ff eb72 	blx	c0f8 <_init+0x170>
    ca14:	f107 0318 	add.w	r3, r7, #24
    ca18:	4618      	mov	r0, r3
    ca1a:	f7ff ec52 	blx	c2c0 <_init+0x338>
    ca1e:	f107 0398 	add.w	r3, r7, #152	; 0x98
    ca22:	4618      	mov	r0, r3
    ca24:	f7ff ec6a 	blx	c2fc <_init+0x374>
    ca28:	f107 03b8 	add.w	r3, r7, #184	; 0xb8
    ca2c:	4618      	mov	r0, r3
    ca2e:	f001 fb51 	bl	e0d4 <_ZN2cv3gpu6GpuMatC1Ev>
    ca32:	f107 032c 	add.w	r3, r7, #44	; 0x2c
    ca36:	4618      	mov	r0, r3
    ca38:	f001 fcf6 	bl	e428 <_ZNSt6vectorIN2cv3VecIfLi3EEESaIS2_EEC1Ev>
    ca3c:	f107 0258 	add.w	r2, r7, #88	; 0x58
    ca40:	f107 03b8 	add.w	r3, r7, #184	; 0xb8
    ca44:	210a      	movs	r1, #10
    ca46:	9100      	str	r1, [sp, #0]
    ca48:	2100      	movs	r1, #0
    ca4a:	9101      	str	r1, [sp, #4]
    ca4c:	2100      	movs	r1, #0
    ca4e:	9102      	str	r1, [sp, #8]
    ca50:	f44f 5180 	mov.w	r1, #4096	; 0x1000
    ca54:	9103      	str	r1, [sp, #12]
    ca56:	4610      	mov	r0, r2
    ca58:	4619      	mov	r1, r3
    ca5a:	2203      	movs	r2, #3
    ca5c:	eeb7 0a00 	vmov.f32	s0, #112	; 0x70
    ca60:	eddf 0a9d 	vldr	s1, [pc, #628]	; ccd8 <_Z10gpuProcessRN2cv3MatES1_+0x4a0>
    ca64:	2364      	movs	r3, #100	; 0x64
    ca66:	f7ff eb5a 	blx	c11c <_init+0x194>
    ca6a:	f107 0298 	add.w	r2, r7, #152	; 0x98
    ca6e:	f107 032c 	add.w	r3, r7, #44	; 0x2c
    ca72:	4610      	mov	r0, r2
    ca74:	4619      	mov	r1, r3
    ca76:	f001 fc4d 	bl	e314 <_ZN2cv12_OutputArrayC1INS_3VecIfLi3EEEEERSt6vectorIT_SaIS5_EE>
    ca7a:	f107 02b8 	add.w	r2, r7, #184	; 0xb8
    ca7e:	f107 0398 	add.w	r3, r7, #152	; 0x98
    ca82:	4610      	mov	r0, r2
    ca84:	4619      	mov	r1, r3
    ca86:	f7ff eac6 	blx	c014 <_init+0x8c>
    ca8a:	f107 0308 	add.w	r3, r7, #8
    ca8e:	2200      	movs	r2, #0
    ca90:	601a      	str	r2, [r3, #0]
    ca92:	e0a0      	b.n	cbd6 <_Z10gpuProcessRN2cv3MatES1_+0x39e>
    ca94:	f107 022c 	add.w	r2, r7, #44	; 0x2c
    ca98:	f107 0308 	add.w	r3, r7, #8
    ca9c:	4610      	mov	r0, r2
    ca9e:	6819      	ldr	r1, [r3, #0]
    caa0:	f001 fc64 	bl	e36c <_ZNSt6vectorIN2cv3VecIfLi3EEESaIS2_EEixEj>
    caa4:	4603      	mov	r3, r0
    caa6:	4618      	mov	r0, r3
    caa8:	2100      	movs	r1, #0
    caaa:	f001 fc73 	bl	e394 <_ZN2cv3VecIfLi3EEixEi>
    caae:	4603      	mov	r3, r0
    cab0:	edd3 7a00 	vldr	s15, [r3]
    cab4:	eeb7 7ae7 	vcvt.f64.f32	d7, s15
    cab8:	eeb0 0b47 	vmov.f64	d0, d7
    cabc:	f001 f92c 	bl	dd18 <_Z7cvRoundd>
    cac0:	4604      	mov	r4, r0
    cac2:	f107 022c 	add.w	r2, r7, #44	; 0x2c
    cac6:	f107 0308 	add.w	r3, r7, #8
    caca:	4610      	mov	r0, r2
    cacc:	6819      	ldr	r1, [r3, #0]
    cace:	f001 fc4d 	bl	e36c <_ZNSt6vectorIN2cv3VecIfLi3EEESaIS2_EEixEj>
    cad2:	4603      	mov	r3, r0
    cad4:	4618      	mov	r0, r3
    cad6:	2101      	movs	r1, #1
    cad8:	f001 fc5c 	bl	e394 <_ZN2cv3VecIfLi3EEixEi>
    cadc:	4603      	mov	r3, r0
    cade:	edd3 7a00 	vldr	s15, [r3]
    cae2:	eeb7 7ae7 	vcvt.f64.f32	d7, s15
    cae6:	eeb0 0b47 	vmov.f64	d0, d7
    caea:	f001 f915 	bl	dd18 <_Z7cvRoundd>
    caee:	4603      	mov	r3, r0
    caf0:	f107 0210 	add.w	r2, r7, #16
    caf4:	4610      	mov	r0, r2
    caf6:	4621      	mov	r1, r4
    caf8:	461a      	mov	r2, r3
    cafa:	f001 fb47 	bl	e18c <_ZN2cv6Point_IiEC1Eii>
    cafe:	f107 022c 	add.w	r2, r7, #44	; 0x2c
    cb02:	f107 0308 	add.w	r3, r7, #8
    cb06:	4610      	mov	r0, r2
    cb08:	6819      	ldr	r1, [r3, #0]
    cb0a:	f001 fc2f 	bl	e36c <_ZNSt6vectorIN2cv3VecIfLi3EEESaIS2_EEixEj>
    cb0e:	4603      	mov	r3, r0
    cb10:	4618      	mov	r0, r3
    cb12:	2102      	movs	r1, #2
    cb14:	f001 fc3e 	bl	e394 <_ZN2cv3VecIfLi3EEixEi>
    cb18:	4603      	mov	r3, r0
    cb1a:	edd3 7a00 	vldr	s15, [r3]
    cb1e:	eeb7 7ae7 	vcvt.f64.f32	d7, s15
    cb22:	f107 040c 	add.w	r4, r7, #12
    cb26:	eeb0 0b47 	vmov.f64	d0, d7
    cb2a:	f001 f8f5 	bl	dd18 <_Z7cvRoundd>
    cb2e:	6020      	str	r0, [r4, #0]
    cb30:	f107 0218 	add.w	r2, r7, #24
    cb34:	f107 0310 	add.w	r3, r7, #16
    cb38:	4610      	mov	r0, r2
    cb3a:	4619      	mov	r1, r3
    cb3c:	f001 fb12 	bl	e164 <_ZN2cv6Point_IiEC1ERKS1_>
    cb40:	f107 0398 	add.w	r3, r7, #152	; 0x98
    cb44:	4618      	mov	r0, r3
    cb46:	ed9f 0b60 	vldr	d0, [pc, #384]	; ccc8 <_Z10gpuProcessRN2cv3MatES1_+0x490>
    cb4a:	ed9f 1b61 	vldr	d1, [pc, #388]	; ccd0 <_Z10gpuProcessRN2cv3MatES1_+0x498>
    cb4e:	ed9f 2b60 	vldr	d2, [pc, #384]	; ccd0 <_Z10gpuProcessRN2cv3MatES1_+0x498>
    cb52:	ed9f 3b5d 	vldr	d3, [pc, #372]	; ccc8 <_Z10gpuProcessRN2cv3MatES1_+0x490>
    cb56:	f001 fc2d 	bl	e3b4 <_ZN2cv7Scalar_IdEC1Edddd>
    cb5a:	4639      	mov	r1, r7
    cb5c:	f107 0218 	add.w	r2, r7, #24
    cb60:	f107 0398 	add.w	r3, r7, #152	; 0x98
    cb64:	f04f 30ff 	mov.w	r0, #4294967295
    cb68:	9000      	str	r0, [sp, #0]
    cb6a:	2008      	movs	r0, #8
    cb6c:	9001      	str	r0, [sp, #4]
    cb6e:	2000      	movs	r0, #0
    cb70:	9002      	str	r0, [sp, #8]
    cb72:	6808      	ldr	r0, [r1, #0]
    cb74:	4611      	mov	r1, r2
    cb76:	2203      	movs	r2, #3
    cb78:	f7ff ea34 	blx	bfe4 <_init+0x5c>
    cb7c:	f107 0218 	add.w	r2, r7, #24
    cb80:	f107 0310 	add.w	r3, r7, #16
    cb84:	4610      	mov	r0, r2
    cb86:	4619      	mov	r1, r3
    cb88:	f001 faec 	bl	e164 <_ZN2cv6Point_IiEC1ERKS1_>
    cb8c:	f107 0398 	add.w	r3, r7, #152	; 0x98
    cb90:	4618      	mov	r0, r3
    cb92:	ed9f 0b4d 	vldr	d0, [pc, #308]	; ccc8 <_Z10gpuProcessRN2cv3MatES1_+0x490>
    cb96:	ed9f 1b4e 	vldr	d1, [pc, #312]	; ccd0 <_Z10gpuProcessRN2cv3MatES1_+0x498>
    cb9a:	ed9f 2b4d 	vldr	d2, [pc, #308]	; ccd0 <_Z10gpuProcessRN2cv3MatES1_+0x498>
    cb9e:	ed9f 3b4a 	vldr	d3, [pc, #296]	; ccc8 <_Z10gpuProcessRN2cv3MatES1_+0x490>
    cba2:	f001 fc07 	bl	e3b4 <_ZN2cv7Scalar_IdEC1Edddd>
    cba6:	4638      	mov	r0, r7
    cba8:	f107 0118 	add.w	r1, r7, #24
    cbac:	f107 020c 	add.w	r2, r7, #12
    cbb0:	f107 0398 	add.w	r3, r7, #152	; 0x98
    cbb4:	2403      	movs	r4, #3
    cbb6:	9400      	str	r4, [sp, #0]
    cbb8:	2408      	movs	r4, #8
    cbba:	9401      	str	r4, [sp, #4]
    cbbc:	2400      	movs	r4, #0
    cbbe:	9402      	str	r4, [sp, #8]
    cbc0:	6800      	ldr	r0, [r0, #0]
    cbc2:	6812      	ldr	r2, [r2, #0]
    cbc4:	f7ff ea0e 	blx	bfe4 <_init+0x5c>
    cbc8:	f107 0308 	add.w	r3, r7, #8
    cbcc:	f107 0208 	add.w	r2, r7, #8
    cbd0:	6812      	ldr	r2, [r2, #0]
    cbd2:	3201      	adds	r2, #1
    cbd4:	601a      	str	r2, [r3, #0]
    cbd6:	f107 032c 	add.w	r3, r7, #44	; 0x2c
    cbda:	4618      	mov	r0, r3
    cbdc:	f001 fbae 	bl	e33c <_ZNKSt6vectorIN2cv3VecIfLi3EEESaIS2_EE4sizeEv>
    cbe0:	4602      	mov	r2, r0
    cbe2:	f107 0308 	add.w	r3, r7, #8
    cbe6:	681b      	ldr	r3, [r3, #0]
    cbe8:	429a      	cmp	r2, r3
    cbea:	bf8c      	ite	hi
    cbec:	2301      	movhi	r3, #1
    cbee:	2300      	movls	r3, #0
    cbf0:	b2db      	uxtb	r3, r3
    cbf2:	2b00      	cmp	r3, #0
    cbf4:	f47f af4e 	bne.w	ca94 <_Z10gpuProcessRN2cv3MatES1_+0x25c>
    cbf8:	f107 032c 	add.w	r3, r7, #44	; 0x2c
    cbfc:	4618      	mov	r0, r3
    cbfe:	f001 fc21 	bl	e444 <_ZNSt6vectorIN2cv3VecIfLi3EEESaIS2_EED1Ev>
    cc02:	f107 03b8 	add.w	r3, r7, #184	; 0xb8
    cc06:	4618      	mov	r0, r3
    cc08:	f001 fa88 	bl	e11c <_ZN2cv3gpu6GpuMatD1Ev>
    cc0c:	f107 0320 	add.w	r3, r7, #32
    cc10:	4618      	mov	r0, r3
    cc12:	f001 fb49 	bl	e2a8 <_ZNSt6vectorIN2cv3gpu6GpuMatESaIS2_EED1Ev>
    cc16:	f107 0378 	add.w	r3, r7, #120	; 0x78
    cc1a:	4618      	mov	r0, r3
    cc1c:	f001 fa7e 	bl	e11c <_ZN2cv3gpu6GpuMatD1Ev>
    cc20:	f107 0358 	add.w	r3, r7, #88	; 0x58
    cc24:	4618      	mov	r0, r3
    cc26:	f001 fa79 	bl	e11c <_ZN2cv3gpu6GpuMatD1Ev>
    cc2a:	f107 0338 	add.w	r3, r7, #56	; 0x38
    cc2e:	4618      	mov	r0, r3
    cc30:	f001 fa74 	bl	e11c <_ZN2cv3gpu6GpuMatD1Ev>
    cc34:	f107 03d8 	add.w	r3, r7, #216	; 0xd8
    cc38:	4618      	mov	r0, r3
    cc3a:	f001 f947 	bl	decc <_ZN2cv3MatD1Ev>
    cc3e:	e03c      	b.n	ccba <_Z10gpuProcessRN2cv3MatES1_+0x482>
    cc40:	f107 0398 	add.w	r3, r7, #152	; 0x98
    cc44:	4618      	mov	r0, r3
    cc46:	f001 fa69 	bl	e11c <_ZN2cv3gpu6GpuMatD1Ev>
    cc4a:	e017      	b.n	cc7c <_Z10gpuProcessRN2cv3MatES1_+0x444>
    cc4c:	f107 0318 	add.w	r3, r7, #24
    cc50:	4618      	mov	r0, r3
    cc52:	f7ff eb36 	blx	c2c0 <_init+0x338>
    cc56:	e7ff      	b.n	cc58 <_Z10gpuProcessRN2cv3MatES1_+0x420>
    cc58:	f107 0398 	add.w	r3, r7, #152	; 0x98
    cc5c:	4618      	mov	r0, r3
    cc5e:	f7ff eb4e 	blx	c2fc <_init+0x374>
    cc62:	e00b      	b.n	cc7c <_Z10gpuProcessRN2cv3MatES1_+0x444>
    cc64:	f107 032c 	add.w	r3, r7, #44	; 0x2c
    cc68:	4618      	mov	r0, r3
    cc6a:	f001 fbeb 	bl	e444 <_ZNSt6vectorIN2cv3VecIfLi3EEESaIS2_EED1Ev>
    cc6e:	e7ff      	b.n	cc70 <_Z10gpuProcessRN2cv3MatES1_+0x438>
    cc70:	f107 03b8 	add.w	r3, r7, #184	; 0xb8
    cc74:	4618      	mov	r0, r3
    cc76:	f001 fa51 	bl	e11c <_ZN2cv3gpu6GpuMatD1Ev>
    cc7a:	e7ff      	b.n	cc7c <_Z10gpuProcessRN2cv3MatES1_+0x444>
    cc7c:	f107 0320 	add.w	r3, r7, #32
    cc80:	4618      	mov	r0, r3
    cc82:	f001 fb11 	bl	e2a8 <_ZNSt6vectorIN2cv3gpu6GpuMatESaIS2_EED1Ev>
    cc86:	e7ff      	b.n	cc88 <_Z10gpuProcessRN2cv3MatES1_+0x450>
    cc88:	f107 0378 	add.w	r3, r7, #120	; 0x78
    cc8c:	4618      	mov	r0, r3
    cc8e:	f001 fa45 	bl	e11c <_ZN2cv3gpu6GpuMatD1Ev>
    cc92:	e7ff      	b.n	cc94 <_Z10gpuProcessRN2cv3MatES1_+0x45c>
    cc94:	f107 0358 	add.w	r3, r7, #88	; 0x58
    cc98:	4618      	mov	r0, r3
    cc9a:	f001 fa3f 	bl	e11c <_ZN2cv3gpu6GpuMatD1Ev>
    cc9e:	e7ff      	b.n	cca0 <_Z10gpuProcessRN2cv3MatES1_+0x468>
    cca0:	f107 0338 	add.w	r3, r7, #56	; 0x38
    cca4:	4618      	mov	r0, r3
    cca6:	f001 fa39 	bl	e11c <_ZN2cv3gpu6GpuMatD1Ev>
    ccaa:	e7ff      	b.n	ccac <_Z10gpuProcessRN2cv3MatES1_+0x474>
    ccac:	f107 03d8 	add.w	r3, r7, #216	; 0xd8
    ccb0:	4618      	mov	r0, r3
    ccb2:	f001 f90b 	bl	decc <_ZN2cv3MatD1Ev>
    ccb6:	f7ff eac2 	blx	c23c <_init+0x2b4>
    ccba:	f507 7788 	add.w	r7, r7, #272	; 0x110
    ccbe:	46bd      	mov	sp, r7
    ccc0:	ecbd 8b04 	vpop	{d8-d9}
    ccc4:	bdb0      	pop	{r4, r5, r7, pc}
    ccc6:	bf00      	nop
	...
    ccd4:	40600000 	.word	0x40600000
    ccd8:	43480000 	.word	0x43480000

0000ccdc <_Z14dilateAndErodeRN2cv3MatEiii>:
    ccdc:	b590      	push	{r4, r7, lr}
    ccde:	b0bf      	sub	sp, #252	; 0xfc
    cce0:	af04      	add	r7, sp, #16
    cce2:	60f8      	str	r0, [r7, #12]
    cce4:	60b9      	str	r1, [r7, #8]
    cce6:	607a      	str	r2, [r7, #4]
    cce8:	603b      	str	r3, [r7, #0]
    ccea:	687b      	ldr	r3, [r7, #4]
    ccec:	2b00      	cmp	r3, #0
    ccee:	d101      	bne.n	ccf4 <_Z14dilateAndErodeRN2cv3MatEiii+0x18>
    ccf0:	2301      	movs	r3, #1
    ccf2:	607b      	str	r3, [r7, #4]
    ccf4:	f107 0358 	add.w	r3, r7, #88	; 0x58
    ccf8:	4618      	mov	r0, r3
    ccfa:	6879      	ldr	r1, [r7, #4]
    ccfc:	687a      	ldr	r2, [r7, #4]
    ccfe:	f001 fa59 	bl	e1b4 <_ZN2cv5Size_IiEC1Eii>
    cd02:	f107 03b0 	add.w	r3, r7, #176	; 0xb0
    cd06:	4618      	mov	r0, r3
    cd08:	f04f 31ff 	mov.w	r1, #4294967295
    cd0c:	f04f 32ff 	mov.w	r2, #4294967295
    cd10:	f001 fa3c 	bl	e18c <_ZN2cv6Point_IiEC1Eii>
    cd14:	f107 0178 	add.w	r1, r7, #120	; 0x78
    cd18:	f107 0258 	add.w	r2, r7, #88	; 0x58
    cd1c:	f107 03b0 	add.w	r3, r7, #176	; 0xb0
    cd20:	4608      	mov	r0, r1
    cd22:	2100      	movs	r1, #0
    cd24:	f7ff ea96 	blx	c254 <_init+0x2cc>
    cd28:	f107 0344 	add.w	r3, r7, #68	; 0x44
    cd2c:	4618      	mov	r0, r3
    cd2e:	68b9      	ldr	r1, [r7, #8]
    cd30:	68ba      	ldr	r2, [r7, #8]
    cd32:	f001 fa3f 	bl	e1b4 <_ZN2cv5Size_IiEC1Eii>
    cd36:	f107 0358 	add.w	r3, r7, #88	; 0x58
    cd3a:	4618      	mov	r0, r3
    cd3c:	f04f 31ff 	mov.w	r1, #4294967295
    cd40:	f04f 32ff 	mov.w	r2, #4294967295
    cd44:	f001 fa22 	bl	e18c <_ZN2cv6Point_IiEC1Eii>
    cd48:	f107 01b0 	add.w	r1, r7, #176	; 0xb0
    cd4c:	f107 0244 	add.w	r2, r7, #68	; 0x44
    cd50:	f107 0358 	add.w	r3, r7, #88	; 0x58
    cd54:	4608      	mov	r0, r1
    cd56:	2100      	movs	r1, #0
    cd58:	f7ff ea7c 	blx	c254 <_init+0x2cc>
    cd5c:	2300      	movs	r3, #0
    cd5e:	613b      	str	r3, [r7, #16]
    cd60:	e068      	b.n	ce34 <_Z14dilateAndErodeRN2cv3MatEiii+0x158>
    cd62:	f107 031c 	add.w	r3, r7, #28
    cd66:	4618      	mov	r0, r3
    cd68:	68f9      	ldr	r1, [r7, #12]
    cd6a:	f7ff e9de 	blx	c128 <_init+0x1a0>
    cd6e:	f107 0330 	add.w	r3, r7, #48	; 0x30
    cd72:	4618      	mov	r0, r3
    cd74:	68f9      	ldr	r1, [r7, #12]
    cd76:	f7ff e95a 	blx	c02c <_init+0xa4>
    cd7a:	f107 0244 	add.w	r2, r7, #68	; 0x44
    cd7e:	f107 0378 	add.w	r3, r7, #120	; 0x78
    cd82:	4610      	mov	r0, r2
    cd84:	4619      	mov	r1, r3
    cd86:	f7ff e9d0 	blx	c128 <_init+0x1a0>
    cd8a:	f107 0314 	add.w	r3, r7, #20
    cd8e:	4618      	mov	r0, r3
    cd90:	f04f 31ff 	mov.w	r1, #4294967295
    cd94:	f04f 32ff 	mov.w	r2, #4294967295
    cd98:	f001 f9f8 	bl	e18c <_ZN2cv6Point_IiEC1Eii>
    cd9c:	f107 0358 	add.w	r3, r7, #88	; 0x58
    cda0:	4618      	mov	r0, r3
    cda2:	f7ff fb3d 	bl	c420 <_ZN2cvL28morphologyDefaultBorderValueEv>
    cda6:	f107 001c 	add.w	r0, r7, #28
    cdaa:	f107 0130 	add.w	r1, r7, #48	; 0x30
    cdae:	f107 0244 	add.w	r2, r7, #68	; 0x44
    cdb2:	f107 0314 	add.w	r3, r7, #20
    cdb6:	2401      	movs	r4, #1
    cdb8:	9400      	str	r4, [sp, #0]
    cdba:	2400      	movs	r4, #0
    cdbc:	9401      	str	r4, [sp, #4]
    cdbe:	f107 0458 	add.w	r4, r7, #88	; 0x58
    cdc2:	9402      	str	r4, [sp, #8]
    cdc4:	f7ff e9bc 	blx	c140 <_init+0x1b8>
    cdc8:	f107 031c 	add.w	r3, r7, #28
    cdcc:	4618      	mov	r0, r3
    cdce:	68f9      	ldr	r1, [r7, #12]
    cdd0:	f7ff e9aa 	blx	c128 <_init+0x1a0>
    cdd4:	f107 0330 	add.w	r3, r7, #48	; 0x30
    cdd8:	4618      	mov	r0, r3
    cdda:	68f9      	ldr	r1, [r7, #12]
    cddc:	f7ff e926 	blx	c02c <_init+0xa4>
    cde0:	f107 0244 	add.w	r2, r7, #68	; 0x44
    cde4:	f107 03b0 	add.w	r3, r7, #176	; 0xb0
    cde8:	4610      	mov	r0, r2
    cdea:	4619      	mov	r1, r3
    cdec:	f7ff e99c 	blx	c128 <_init+0x1a0>
    cdf0:	f107 0314 	add.w	r3, r7, #20
    cdf4:	4618      	mov	r0, r3
    cdf6:	f04f 31ff 	mov.w	r1, #4294967295
    cdfa:	f04f 32ff 	mov.w	r2, #4294967295
    cdfe:	f001 f9c5 	bl	e18c <_ZN2cv6Point_IiEC1Eii>
    ce02:	f107 0358 	add.w	r3, r7, #88	; 0x58
    ce06:	4618      	mov	r0, r3
    ce08:	f7ff fb0a 	bl	c420 <_ZN2cvL28morphologyDefaultBorderValueEv>
    ce0c:	f107 001c 	add.w	r0, r7, #28
    ce10:	f107 0130 	add.w	r1, r7, #48	; 0x30
    ce14:	f107 0244 	add.w	r2, r7, #68	; 0x44
    ce18:	f107 0314 	add.w	r3, r7, #20
    ce1c:	2401      	movs	r4, #1
    ce1e:	9400      	str	r4, [sp, #0]
    ce20:	2400      	movs	r4, #0
    ce22:	9401      	str	r4, [sp, #4]
    ce24:	f107 0458 	add.w	r4, r7, #88	; 0x58
    ce28:	9402      	str	r4, [sp, #8]
    ce2a:	f7ff e8fa 	blx	c020 <_init+0x98>
    ce2e:	693b      	ldr	r3, [r7, #16]
    ce30:	3301      	adds	r3, #1
    ce32:	613b      	str	r3, [r7, #16]
    ce34:	693a      	ldr	r2, [r7, #16]
    ce36:	683b      	ldr	r3, [r7, #0]
    ce38:	429a      	cmp	r2, r3
    ce3a:	db92      	blt.n	cd62 <_Z14dilateAndErodeRN2cv3MatEiii+0x86>
    ce3c:	f107 03b0 	add.w	r3, r7, #176	; 0xb0
    ce40:	4618      	mov	r0, r3
    ce42:	f001 f843 	bl	decc <_ZN2cv3MatD1Ev>
    ce46:	f107 0378 	add.w	r3, r7, #120	; 0x78
    ce4a:	4618      	mov	r0, r3
    ce4c:	f001 f83e 	bl	decc <_ZN2cv3MatD1Ev>
    ce50:	e00c      	b.n	ce6c <_Z14dilateAndErodeRN2cv3MatEiii+0x190>
    ce52:	f107 03b0 	add.w	r3, r7, #176	; 0xb0
    ce56:	4618      	mov	r0, r3
    ce58:	f001 f838 	bl	decc <_ZN2cv3MatD1Ev>
    ce5c:	e7ff      	b.n	ce5e <_Z14dilateAndErodeRN2cv3MatEiii+0x182>
    ce5e:	f107 0378 	add.w	r3, r7, #120	; 0x78
    ce62:	4618      	mov	r0, r3
    ce64:	f001 f832 	bl	decc <_ZN2cv3MatD1Ev>
    ce68:	f7ff e9e8 	blx	c23c <_init+0x2b4>
    ce6c:	37ec      	adds	r7, #236	; 0xec
    ce6e:	46bd      	mov	sp, r7
    ce70:	bd90      	pop	{r4, r7, pc}
    ce72:	bf00      	nop

0000ce74 <_Z17gpuDilateAndErodeRN2cv3gpu6GpuMatEiii>:
    ce74:	b580      	push	{r7, lr}
    ce76:	b0a8      	sub	sp, #160	; 0xa0
    ce78:	af02      	add	r7, sp, #8
    ce7a:	60f8      	str	r0, [r7, #12]
    ce7c:	60b9      	str	r1, [r7, #8]
    ce7e:	607a      	str	r2, [r7, #4]
    ce80:	603b      	str	r3, [r7, #0]
    ce82:	f107 0320 	add.w	r3, r7, #32
    ce86:	4618      	mov	r0, r3
    ce88:	6879      	ldr	r1, [r7, #4]
    ce8a:	687a      	ldr	r2, [r7, #4]
    ce8c:	f001 f992 	bl	e1b4 <_ZN2cv5Size_IiEC1Eii>
    ce90:	f107 0360 	add.w	r3, r7, #96	; 0x60
    ce94:	4618      	mov	r0, r3
    ce96:	f04f 31ff 	mov.w	r1, #4294967295
    ce9a:	f04f 32ff 	mov.w	r2, #4294967295
    ce9e:	f001 f975 	bl	e18c <_ZN2cv6Point_IiEC1Eii>
    cea2:	f107 0128 	add.w	r1, r7, #40	; 0x28
    cea6:	f107 0220 	add.w	r2, r7, #32
    ceaa:	f107 0360 	add.w	r3, r7, #96	; 0x60
    ceae:	4608      	mov	r0, r1
    ceb0:	2100      	movs	r1, #0
    ceb2:	f7ff e9d0 	blx	c254 <_init+0x2cc>
    ceb6:	f107 0318 	add.w	r3, r7, #24
    ceba:	4618      	mov	r0, r3
    cebc:	68b9      	ldr	r1, [r7, #8]
    cebe:	68ba      	ldr	r2, [r7, #8]
    cec0:	f001 f978 	bl	e1b4 <_ZN2cv5Size_IiEC1Eii>
    cec4:	f107 0320 	add.w	r3, r7, #32
    cec8:	4618      	mov	r0, r3
    ceca:	f04f 31ff 	mov.w	r1, #4294967295
    cece:	f04f 32ff 	mov.w	r2, #4294967295
    ced2:	f001 f95b 	bl	e18c <_ZN2cv6Point_IiEC1Eii>
    ced6:	f107 0160 	add.w	r1, r7, #96	; 0x60
    ceda:	f107 0218 	add.w	r2, r7, #24
    cede:	f107 0320 	add.w	r3, r7, #32
    cee2:	4608      	mov	r0, r1
    cee4:	2100      	movs	r1, #0
    cee6:	f7ff e9b6 	blx	c254 <_init+0x2cc>
    ceea:	2300      	movs	r3, #0
    ceec:	617b      	str	r3, [r7, #20]
    ceee:	e028      	b.n	cf42 <_Z17gpuDilateAndErodeRN2cv3gpu6GpuMatEiii+0xce>
    cef0:	f107 0320 	add.w	r3, r7, #32
    cef4:	4618      	mov	r0, r3
    cef6:	f04f 31ff 	mov.w	r1, #4294967295
    cefa:	f04f 32ff 	mov.w	r2, #4294967295
    cefe:	f001 f945 	bl	e18c <_ZN2cv6Point_IiEC1Eii>
    cf02:	f107 0228 	add.w	r2, r7, #40	; 0x28
    cf06:	f107 0320 	add.w	r3, r7, #32
    cf0a:	2101      	movs	r1, #1
    cf0c:	9100      	str	r1, [sp, #0]
    cf0e:	68f8      	ldr	r0, [r7, #12]
    cf10:	68f9      	ldr	r1, [r7, #12]
    cf12:	f7ff e91c 	blx	c14c <_init+0x1c4>
    cf16:	f107 0320 	add.w	r3, r7, #32
    cf1a:	4618      	mov	r0, r3
    cf1c:	f04f 31ff 	mov.w	r1, #4294967295
    cf20:	f04f 32ff 	mov.w	r2, #4294967295
    cf24:	f001 f932 	bl	e18c <_ZN2cv6Point_IiEC1Eii>
    cf28:	f107 0260 	add.w	r2, r7, #96	; 0x60
    cf2c:	f107 0320 	add.w	r3, r7, #32
    cf30:	2101      	movs	r1, #1
    cf32:	9100      	str	r1, [sp, #0]
    cf34:	68f8      	ldr	r0, [r7, #12]
    cf36:	68f9      	ldr	r1, [r7, #12]
    cf38:	f7ff e938 	blx	c1ac <_init+0x224>
    cf3c:	697b      	ldr	r3, [r7, #20]
    cf3e:	3301      	adds	r3, #1
    cf40:	617b      	str	r3, [r7, #20]
    cf42:	697a      	ldr	r2, [r7, #20]
    cf44:	683b      	ldr	r3, [r7, #0]
    cf46:	429a      	cmp	r2, r3
    cf48:	dbd2      	blt.n	cef0 <_Z17gpuDilateAndErodeRN2cv3gpu6GpuMatEiii+0x7c>
    cf4a:	f107 0360 	add.w	r3, r7, #96	; 0x60
    cf4e:	4618      	mov	r0, r3
    cf50:	f000 ffbc 	bl	decc <_ZN2cv3MatD1Ev>
    cf54:	f107 0328 	add.w	r3, r7, #40	; 0x28
    cf58:	4618      	mov	r0, r3
    cf5a:	f000 ffb7 	bl	decc <_ZN2cv3MatD1Ev>
    cf5e:	e00c      	b.n	cf7a <_Z17gpuDilateAndErodeRN2cv3gpu6GpuMatEiii+0x106>
    cf60:	f107 0360 	add.w	r3, r7, #96	; 0x60
    cf64:	4618      	mov	r0, r3
    cf66:	f000 ffb1 	bl	decc <_ZN2cv3MatD1Ev>
    cf6a:	e7ff      	b.n	cf6c <_Z17gpuDilateAndErodeRN2cv3gpu6GpuMatEiii+0xf8>
    cf6c:	f107 0328 	add.w	r3, r7, #40	; 0x28
    cf70:	4618      	mov	r0, r3
    cf72:	f000 ffab 	bl	decc <_ZN2cv3MatD1Ev>
    cf76:	f7ff e962 	blx	c23c <_init+0x2b4>
    cf7a:	3798      	adds	r7, #152	; 0x98
    cf7c:	46bd      	mov	sp, r7
    cf7e:	bd80      	pop	{r7, pc}

0000cf80 <_Z14displayCirclesN2cv12VideoCaptureERSt6vectorINS_3VecIfLi3EEESaIS3_EE>:
    cf80:	b580      	push	{r7, lr}
    cf82:	b0ac      	sub	sp, #176	; 0xb0
    cf84:	af00      	add	r7, sp, #0
    cf86:	6078      	str	r0, [r7, #4]
    cf88:	6039      	str	r1, [r7, #0]
    cf8a:	f107 0340 	add.w	r3, r7, #64	; 0x40
    cf8e:	4618      	mov	r0, r3
    cf90:	f000 ff82 	bl	de98 <_ZN2cv3MatC1Ev>
    cf94:	f107 0378 	add.w	r3, r7, #120	; 0x78
    cf98:	4618      	mov	r0, r3
    cf9a:	f000 ff7d 	bl	de98 <_ZN2cv3MatC1Ev>
    cf9e:	f107 0340 	add.w	r3, r7, #64	; 0x40
    cfa2:	6878      	ldr	r0, [r7, #4]
    cfa4:	4619      	mov	r1, r3
    cfa6:	f7ff e812 	blx	bfcc <_init+0x44>
    cfaa:	4603      	mov	r3, r0
    cfac:	73fb      	strb	r3, [r7, #15]
    cfae:	7bfb      	ldrb	r3, [r7, #15]
    cfb0:	f083 0301 	eor.w	r3, r3, #1
    cfb4:	b2db      	uxtb	r3, r3
    cfb6:	2b00      	cmp	r3, #0
    cfb8:	d011      	beq.n	cfde <_Z14displayCirclesN2cv12VideoCaptureERSt6vectorINS_3VecIfLi3EEESaIS3_EE+0x5e>
    cfba:	f248 1058 	movw	r0, #33112	; 0x8158
    cfbe:	f2c0 0001 	movt	r0, #1
    cfc2:	f64e 3150 	movw	r1, #60240	; 0xeb50
    cfc6:	f2c0 0100 	movt	r1, #0
    cfca:	f7ff e872 	blx	c0b0 <_init+0x128>
    cfce:	4603      	mov	r3, r0
    cfd0:	4618      	mov	r0, r3
    cfd2:	f24c 2160 	movw	r1, #49760	; 0xc260
    cfd6:	f2c0 0100 	movt	r1, #0
    cfda:	f7ff e94e 	blx	c278 <_init+0x2f0>
    cfde:	f107 0218 	add.w	r2, r7, #24
    cfe2:	f107 0340 	add.w	r3, r7, #64	; 0x40
    cfe6:	4610      	mov	r0, r2
    cfe8:	4619      	mov	r1, r3
    cfea:	f7ff e89e 	blx	c128 <_init+0x1a0>
    cfee:	f107 022c 	add.w	r2, r7, #44	; 0x2c
    cff2:	f107 0340 	add.w	r3, r7, #64	; 0x40
    cff6:	4610      	mov	r0, r2
    cff8:	4619      	mov	r1, r3
    cffa:	f7ff e818 	blx	c02c <_init+0xa4>
    cffe:	f107 0310 	add.w	r3, r7, #16
    d002:	4618      	mov	r0, r3
    d004:	f001 f900 	bl	e208 <_ZN2cv5Size_IiEC1Ev>
    d008:	f107 0118 	add.w	r1, r7, #24
    d00c:	f107 022c 	add.w	r2, r7, #44	; 0x2c
    d010:	f107 0310 	add.w	r3, r7, #16
    d014:	4608      	mov	r0, r1
    d016:	4611      	mov	r1, r2
    d018:	461a      	mov	r2, r3
    d01a:	2304      	movs	r3, #4
    d01c:	f7ff e85a 	blx	c0d4 <_init+0x14c>
    d020:	f107 0278 	add.w	r2, r7, #120	; 0x78
    d024:	f107 0340 	add.w	r3, r7, #64	; 0x40
    d028:	4610      	mov	r0, r2
    d02a:	4619      	mov	r1, r3
    d02c:	f000 ff66 	bl	defc <_ZN2cv3MataSERKS0_>
    d030:	f7ff e856 	blx	c0e0 <_init+0x158>
    d034:	4603      	mov	r3, r0
    d036:	2b00      	cmp	r3, #0
    d038:	bf14      	ite	ne
    d03a:	2301      	movne	r3, #1
    d03c:	2300      	moveq	r3, #0
    d03e:	b2db      	uxtb	r3, r3
    d040:	2b00      	cmp	r3, #0
    d042:	d108      	bne.n	d056 <_Z14displayCirclesN2cv12VideoCaptureERSt6vectorINS_3VecIfLi3EEESaIS3_EE+0xd6>
    d044:	f107 0240 	add.w	r2, r7, #64	; 0x40
    d048:	f107 0378 	add.w	r3, r7, #120	; 0x78
    d04c:	4610      	mov	r0, r2
    d04e:	4619      	mov	r1, r3
    d050:	683a      	ldr	r2, [r7, #0]
    d052:	f7ff f9f9 	bl	c448 <_Z10cpuProcessRN2cv3MatES1_RSt6vectorINS_3VecIfLi3EEESaIS4_EE>
    d056:	f107 0310 	add.w	r3, r7, #16
    d05a:	4618      	mov	r0, r3
    d05c:	f7ff e8e8 	blx	c230 <_init+0x2a8>
    d060:	f107 0218 	add.w	r2, r7, #24
    d064:	f107 0310 	add.w	r3, r7, #16
    d068:	4610      	mov	r0, r2
    d06a:	f64e 3170 	movw	r1, #60272	; 0xeb70
    d06e:	f2c0 0100 	movt	r1, #0
    d072:	461a      	mov	r2, r3
    d074:	f7ff e92a 	blx	c2cc <_init+0x344>
    d078:	f107 022c 	add.w	r2, r7, #44	; 0x2c
    d07c:	f107 0378 	add.w	r3, r7, #120	; 0x78
    d080:	4610      	mov	r0, r2
    d082:	4619      	mov	r1, r3
    d084:	f7ff e850 	blx	c128 <_init+0x1a0>
    d088:	f107 0218 	add.w	r2, r7, #24
    d08c:	f107 032c 	add.w	r3, r7, #44	; 0x2c
    d090:	4610      	mov	r0, r2
    d092:	4619      	mov	r1, r3
    d094:	f7ff e830 	blx	c0f8 <_init+0x170>
    d098:	f107 0318 	add.w	r3, r7, #24
    d09c:	4618      	mov	r0, r3
    d09e:	f7ff e910 	blx	c2c0 <_init+0x338>
    d0a2:	f107 0310 	add.w	r3, r7, #16
    d0a6:	4618      	mov	r0, r3
    d0a8:	f7ff e928 	blx	c2fc <_init+0x374>
    d0ac:	f107 0378 	add.w	r3, r7, #120	; 0x78
    d0b0:	4618      	mov	r0, r3
    d0b2:	f000 ff0b 	bl	decc <_ZN2cv3MatD1Ev>
    d0b6:	f107 0340 	add.w	r3, r7, #64	; 0x40
    d0ba:	4618      	mov	r0, r3
    d0bc:	f000 ff06 	bl	decc <_ZN2cv3MatD1Ev>
    d0c0:	e018      	b.n	d0f4 <_Z14displayCirclesN2cv12VideoCaptureERSt6vectorINS_3VecIfLi3EEESaIS3_EE+0x174>
    d0c2:	f107 0318 	add.w	r3, r7, #24
    d0c6:	4618      	mov	r0, r3
    d0c8:	f7ff e8fa 	blx	c2c0 <_init+0x338>
    d0cc:	e7ff      	b.n	d0ce <_Z14displayCirclesN2cv12VideoCaptureERSt6vectorINS_3VecIfLi3EEESaIS3_EE+0x14e>
    d0ce:	f107 0310 	add.w	r3, r7, #16
    d0d2:	4618      	mov	r0, r3
    d0d4:	f7ff e912 	blx	c2fc <_init+0x374>
    d0d8:	e7ff      	b.n	d0da <_Z14displayCirclesN2cv12VideoCaptureERSt6vectorINS_3VecIfLi3EEESaIS3_EE+0x15a>
    d0da:	f107 0378 	add.w	r3, r7, #120	; 0x78
    d0de:	4618      	mov	r0, r3
    d0e0:	f000 fef4 	bl	decc <_ZN2cv3MatD1Ev>
    d0e4:	e7ff      	b.n	d0e6 <_Z14displayCirclesN2cv12VideoCaptureERSt6vectorINS_3VecIfLi3EEESaIS3_EE+0x166>
    d0e6:	f107 0340 	add.w	r3, r7, #64	; 0x40
    d0ea:	4618      	mov	r0, r3
    d0ec:	f000 feee 	bl	decc <_ZN2cv3MatD1Ev>
    d0f0:	f7ff e8a4 	blx	c23c <_init+0x2b4>
    d0f4:	37b0      	adds	r7, #176	; 0xb0
    d0f6:	46bd      	mov	sp, r7
    d0f8:	bd80      	pop	{r7, pc}
    d0fa:	bf00      	nop

0000d0fc <_Z15make_connectioniPi>:
    d0fc:	b580      	push	{r7, lr}
    d0fe:	b08a      	sub	sp, #40	; 0x28
    d100:	af00      	add	r7, sp, #0
    d102:	6078      	str	r0, [r7, #4]
    d104:	6039      	str	r1, [r7, #0]
    d106:	f248 2320 	movw	r3, #33312	; 0x8220
    d10a:	f2c0 0301 	movt	r3, #1
    d10e:	681b      	ldr	r3, [r3, #0]
    d110:	627b      	str	r3, [r7, #36]	; 0x24
    d112:	683b      	ldr	r3, [r7, #0]
    d114:	681b      	ldr	r3, [r3, #0]
    d116:	2b00      	cmp	r3, #0
    d118:	da3d      	bge.n	d196 <_Z15make_connectioniPi+0x9a>
    d11a:	2002      	movs	r0, #2
    d11c:	2101      	movs	r1, #1
    d11e:	2200      	movs	r2, #0
    d120:	f7fe ef5a 	blx	bfd8 <_init+0x50>
    d124:	4602      	mov	r2, r0
    d126:	683b      	ldr	r3, [r7, #0]
    d128:	601a      	str	r2, [r3, #0]
    d12a:	683b      	ldr	r3, [r7, #0]
    d12c:	681b      	ldr	r3, [r3, #0]
    d12e:	2b00      	cmp	r3, #0
    d130:	da08      	bge.n	d144 <_Z15make_connectioniPi+0x48>
    d132:	f64e 307c 	movw	r0, #60284	; 0xeb7c
    d136:	f2c0 0000 	movt	r0, #0
    d13a:	f7ff e856 	blx	c1e8 <_init+0x260>
    d13e:	f04f 33ff 	mov.w	r3, #4294967295
    d142:	e088      	b.n	d256 <_Z15make_connectioniPi+0x15a>
    d144:	f107 0314 	add.w	r3, r7, #20
    d148:	4618      	mov	r0, r3
    d14a:	2100      	movs	r1, #0
    d14c:	2210      	movs	r2, #16
    d14e:	f7ff e86a 	blx	c224 <_init+0x29c>
    d152:	2302      	movs	r3, #2
    d154:	82bb      	strh	r3, [r7, #20]
    d156:	2300      	movs	r3, #0
    d158:	61bb      	str	r3, [r7, #24]
    d15a:	687b      	ldr	r3, [r7, #4]
    d15c:	b29b      	uxth	r3, r3
    d15e:	4618      	mov	r0, r3
    d160:	f7fe efc4 	blx	c0ec <_init+0x164>
    d164:	4603      	mov	r3, r0
    d166:	82fb      	strh	r3, [r7, #22]
    d168:	683b      	ldr	r3, [r7, #0]
    d16a:	681a      	ldr	r2, [r3, #0]
    d16c:	f107 0314 	add.w	r3, r7, #20
    d170:	4610      	mov	r0, r2
    d172:	4619      	mov	r1, r3
    d174:	2210      	movs	r2, #16
    d176:	f7fe ef18 	blx	bfa8 <_init+0x20>
    d17a:	4603      	mov	r3, r0
    d17c:	0fdb      	lsrs	r3, r3, #31
    d17e:	b2db      	uxtb	r3, r3
    d180:	2b00      	cmp	r3, #0
    d182:	d008      	beq.n	d196 <_Z15make_connectioniPi+0x9a>
    d184:	f64e 3084 	movw	r0, #60292	; 0xeb84
    d188:	f2c0 0000 	movt	r0, #0
    d18c:	f7ff e82c 	blx	c1e8 <_init+0x260>
    d190:	f04f 33ff 	mov.w	r3, #4294967295
    d194:	e05f      	b.n	d256 <_Z15make_connectioniPi+0x15a>
    d196:	f248 2024 	movw	r0, #33316	; 0x8224
    d19a:	f2c0 0001 	movt	r0, #1
    d19e:	f64e 318c 	movw	r1, #60300	; 0xeb8c
    d1a2:	f2c0 0100 	movt	r1, #0
    d1a6:	f7fe ef84 	blx	c0b0 <_init+0x128>
    d1aa:	4603      	mov	r3, r0
    d1ac:	4618      	mov	r0, r3
    d1ae:	6879      	ldr	r1, [r7, #4]
    d1b0:	f7fe ef4e 	blx	c050 <_init+0xc8>
    d1b4:	4603      	mov	r3, r0
    d1b6:	4618      	mov	r0, r3
    d1b8:	f24c 2160 	movw	r1, #49760	; 0xc260
    d1bc:	f2c0 0100 	movt	r1, #0
    d1c0:	f7ff e85a 	blx	c278 <_init+0x2f0>
    d1c4:	683b      	ldr	r3, [r7, #0]
    d1c6:	681b      	ldr	r3, [r3, #0]
    d1c8:	4618      	mov	r0, r3
    d1ca:	2105      	movs	r1, #5
    d1cc:	f7ff e83c 	blx	c248 <_init+0x2c0>
    d1d0:	4603      	mov	r3, r0
    d1d2:	0fdb      	lsrs	r3, r3, #31
    d1d4:	b2db      	uxtb	r3, r3
    d1d6:	2b00      	cmp	r3, #0
    d1d8:	d008      	beq.n	d1ec <_Z15make_connectioniPi+0xf0>
    d1da:	f64e 30ac 	movw	r0, #60332	; 0xebac
    d1de:	f2c0 0000 	movt	r0, #0
    d1e2:	f7ff e802 	blx	c1e8 <_init+0x260>
    d1e6:	f04f 33ff 	mov.w	r3, #4294967295
    d1ea:	e034      	b.n	d256 <_Z15make_connectioniPi+0x15a>
    d1ec:	683b      	ldr	r3, [r7, #0]
    d1ee:	681b      	ldr	r3, [r3, #0]
    d1f0:	4618      	mov	r0, r3
    d1f2:	2100      	movs	r1, #0
    d1f4:	2200      	movs	r2, #0
    d1f6:	f7fe ef68 	blx	c0c8 <_init+0x140>
    d1fa:	4603      	mov	r3, r0
    d1fc:	60fb      	str	r3, [r7, #12]
    d1fe:	68fb      	ldr	r3, [r7, #12]
    d200:	2b00      	cmp	r3, #0
    d202:	da08      	bge.n	d216 <_Z15make_connectioniPi+0x11a>
    d204:	f64e 30b4 	movw	r0, #60340	; 0xebb4
    d208:	f2c0 0000 	movt	r0, #0
    d20c:	f7fe efec 	blx	c1e8 <_init+0x260>
    d210:	f04f 33ff 	mov.w	r3, #4294967295
    d214:	e01f      	b.n	d256 <_Z15make_connectioniPi+0x15a>
    d216:	68f8      	ldr	r0, [r7, #12]
    d218:	2103      	movs	r1, #3
    d21a:	f7fe ef0e 	blx	c038 <_init+0xb0>
    d21e:	4603      	mov	r3, r0
    d220:	613b      	str	r3, [r7, #16]
    d222:	693b      	ldr	r3, [r7, #16]
    d224:	f443 6300 	orr.w	r3, r3, #2048	; 0x800
    d228:	68f8      	ldr	r0, [r7, #12]
    d22a:	2104      	movs	r1, #4
    d22c:	461a      	mov	r2, r3
    d22e:	f7fe ef04 	blx	c038 <_init+0xb0>
    d232:	4603      	mov	r3, r0
    d234:	0fdb      	lsrs	r3, r3, #31
    d236:	b2db      	uxtb	r3, r3
    d238:	2b00      	cmp	r3, #0
    d23a:	d00b      	beq.n	d254 <_Z15make_connectioniPi+0x158>
    d23c:	f64e 30bc 	movw	r0, #60348	; 0xebbc
    d240:	f2c0 0000 	movt	r0, #0
    d244:	f7fe efd0 	blx	c1e8 <_init+0x260>
    d248:	68f8      	ldr	r0, [r7, #12]
    d24a:	f7fe ef2c 	blx	c0a4 <_init+0x11c>
    d24e:	f04f 33ff 	mov.w	r3, #4294967295
    d252:	e000      	b.n	d256 <_Z15make_connectioniPi+0x15a>
    d254:	68fb      	ldr	r3, [r7, #12]
    d256:	4618      	mov	r0, r3
    d258:	f248 2320 	movw	r3, #33312	; 0x8220
    d25c:	f2c0 0301 	movt	r3, #1
    d260:	6a7a      	ldr	r2, [r7, #36]	; 0x24
    d262:	681b      	ldr	r3, [r3, #0]
    d264:	429a      	cmp	r2, r3
    d266:	d001      	beq.n	d26c <_Z15make_connectioniPi+0x170>
    d268:	f7fe eeec 	blx	c044 <_init+0xbc>
    d26c:	3728      	adds	r7, #40	; 0x28
    d26e:	46bd      	mov	sp, r7
    d270:	bd80      	pop	{r7, pc}
    d272:	bf00      	nop

0000d274 <_Z11fill_bufferPhj>:
    d274:	b480      	push	{r7}
    d276:	b083      	sub	sp, #12
    d278:	af00      	add	r7, sp, #0
    d27a:	6078      	str	r0, [r7, #4]
    d27c:	6039      	str	r1, [r7, #0]
    d27e:	683b      	ldr	r3, [r7, #0]
    d280:	0e1b      	lsrs	r3, r3, #24
    d282:	b2da      	uxtb	r2, r3
    d284:	687b      	ldr	r3, [r7, #4]
    d286:	701a      	strb	r2, [r3, #0]
    d288:	687b      	ldr	r3, [r7, #4]
    d28a:	3301      	adds	r3, #1
    d28c:	683a      	ldr	r2, [r7, #0]
    d28e:	0c12      	lsrs	r2, r2, #16
    d290:	b2d2      	uxtb	r2, r2
    d292:	701a      	strb	r2, [r3, #0]
    d294:	687b      	ldr	r3, [r7, #4]
    d296:	3302      	adds	r3, #2
    d298:	683a      	ldr	r2, [r7, #0]
    d29a:	0a12      	lsrs	r2, r2, #8
    d29c:	b2d2      	uxtb	r2, r2
    d29e:	701a      	strb	r2, [r3, #0]
    d2a0:	687b      	ldr	r3, [r7, #4]
    d2a2:	3303      	adds	r3, #3
    d2a4:	683a      	ldr	r2, [r7, #0]
    d2a6:	b2d2      	uxtb	r2, r2
    d2a8:	701a      	strb	r2, [r3, #0]
    d2aa:	370c      	adds	r7, #12
    d2ac:	46bd      	mov	sp, r7
    d2ae:	f85d 7b04 	ldr.w	r7, [sp], #4
    d2b2:	4770      	bx	lr

0000d2b4 <main>:
    d2b4:	b5b0      	push	{r4, r5, r7, lr}
    d2b6:	b0c6      	sub	sp, #280	; 0x118
    d2b8:	af02      	add	r7, sp, #8
    d2ba:	1d3b      	adds	r3, r7, #4
    d2bc:	6018      	str	r0, [r3, #0]
    d2be:	463b      	mov	r3, r7
    d2c0:	6019      	str	r1, [r3, #0]
    d2c2:	f248 2320 	movw	r3, #33312	; 0x8220
    d2c6:	f2c0 0301 	movt	r3, #1
    d2ca:	681b      	ldr	r3, [r3, #0]
    d2cc:	f8c7 310c 	str.w	r3, [r7, #268]	; 0x10c
    d2d0:	f107 030c 	add.w	r3, r7, #12
    d2d4:	f04f 32ff 	mov.w	r2, #4294967295
    d2d8:	601a      	str	r2, [r3, #0]
    d2da:	2301      	movs	r3, #1
    d2dc:	653b      	str	r3, [r7, #80]	; 0x50
    d2de:	2300      	movs	r3, #0
    d2e0:	657b      	str	r3, [r7, #84]	; 0x54
    d2e2:	2300      	movs	r3, #0
    d2e4:	64bb      	str	r3, [r7, #72]	; 0x48
    d2e6:	f107 0310 	add.w	r3, r7, #16
    d2ea:	2201      	movs	r2, #1
    d2ec:	601a      	str	r2, [r3, #0]
    d2ee:	f107 0370 	add.w	r3, r7, #112	; 0x70
    d2f2:	4618      	mov	r0, r3
    d2f4:	f7fe ef9c 	blx	c230 <_init+0x2a8>
    d2f8:	f107 027c 	add.w	r2, r7, #124	; 0x7c
    d2fc:	f107 0370 	add.w	r3, r7, #112	; 0x70
    d300:	4610      	mov	r0, r2
    d302:	f64e 31d4 	movw	r1, #60372	; 0xebd4
    d306:	f2c0 0100 	movt	r1, #0
    d30a:	461a      	mov	r2, r3
    d30c:	f7fe efde 	blx	c2cc <_init+0x344>
    d310:	f107 0264 	add.w	r2, r7, #100	; 0x64
    d314:	f107 037c 	add.w	r3, r7, #124	; 0x7c
    d318:	4610      	mov	r0, r2
    d31a:	4619      	mov	r1, r3
    d31c:	f7fe ef0a 	blx	c134 <_init+0x1ac>
    d320:	f107 037c 	add.w	r3, r7, #124	; 0x7c
    d324:	4618      	mov	r0, r3
    d326:	f7fe efcc 	blx	c2c0 <_init+0x338>
    d32a:	f107 0370 	add.w	r3, r7, #112	; 0x70
    d32e:	4618      	mov	r0, r3
    d330:	f7fe efe4 	blx	c2fc <_init+0x374>
    d334:	f107 0364 	add.w	r3, r7, #100	; 0x64
    d338:	4618      	mov	r0, r3
    d33a:	f7fe ef4a 	blx	c1d0 <_init+0x248>
    d33e:	4603      	mov	r3, r0
    d340:	f083 0301 	eor.w	r3, r3, #1
    d344:	b2db      	uxtb	r3, r3
    d346:	2b00      	cmp	r3, #0
    d348:	d014      	beq.n	d374 <main+0xc0>
    d34a:	f248 1058 	movw	r0, #33112	; 0x8158
    d34e:	f2c0 0001 	movt	r0, #1
    d352:	f64e 31e0 	movw	r1, #60384	; 0xebe0
    d356:	f2c0 0100 	movt	r1, #0
    d35a:	f7fe eeaa 	blx	c0b0 <_init+0x128>
    d35e:	4603      	mov	r3, r0
    d360:	4618      	mov	r0, r3
    d362:	f24c 2160 	movw	r1, #49760	; 0xc260
    d366:	f2c0 0100 	movt	r1, #0
    d36a:	f7fe ef86 	blx	c278 <_init+0x2f0>
    d36e:	f04f 34ff 	mov.w	r4, #4294967295
    d372:	e3a0      	b.n	dab6 <main+0x802>
    d374:	f107 037c 	add.w	r3, r7, #124	; 0x7c
    d378:	4618      	mov	r0, r3
    d37a:	f7fe ef5a 	blx	c230 <_init+0x2a8>
    d37e:	f107 0214 	add.w	r2, r7, #20
    d382:	f107 037c 	add.w	r3, r7, #124	; 0x7c
    d386:	4610      	mov	r0, r2
    d388:	f64e 4104 	movw	r1, #60420	; 0xec04
    d38c:	f2c0 0100 	movt	r1, #0
    d390:	461a      	mov	r2, r3
    d392:	f7fe ef9c 	blx	c2cc <_init+0x344>
    d396:	f107 0314 	add.w	r3, r7, #20
    d39a:	4618      	mov	r0, r3
    d39c:	2100      	movs	r1, #0
    d39e:	f7fe ef8a 	blx	c2b4 <_init+0x32c>
    d3a2:	f107 0314 	add.w	r3, r7, #20
    d3a6:	4618      	mov	r0, r3
    d3a8:	f7fe ef8a 	blx	c2c0 <_init+0x338>
    d3ac:	f107 037c 	add.w	r3, r7, #124	; 0x7c
    d3b0:	4618      	mov	r0, r3
    d3b2:	f7fe efa4 	blx	c2fc <_init+0x374>
    d3b6:	f107 0370 	add.w	r3, r7, #112	; 0x70
    d3ba:	4618      	mov	r0, r3
    d3bc:	f7fe ef38 	blx	c230 <_init+0x2a8>
    d3c0:	f107 0218 	add.w	r2, r7, #24
    d3c4:	f107 0370 	add.w	r3, r7, #112	; 0x70
    d3c8:	4610      	mov	r0, r2
    d3ca:	f64e 4110 	movw	r1, #60432	; 0xec10
    d3ce:	f2c0 0100 	movt	r1, #0
    d3d2:	461a      	mov	r2, r3
    d3d4:	f7fe ef7a 	blx	c2cc <_init+0x344>
    d3d8:	f107 037c 	add.w	r3, r7, #124	; 0x7c
    d3dc:	4618      	mov	r0, r3
    d3de:	f7fe ef28 	blx	c230 <_init+0x2a8>
    d3e2:	f107 021c 	add.w	r2, r7, #28
    d3e6:	f107 037c 	add.w	r3, r7, #124	; 0x7c
    d3ea:	4610      	mov	r0, r2
    d3ec:	f64e 4104 	movw	r1, #60420	; 0xec04
    d3f0:	f2c0 0100 	movt	r1, #0
    d3f4:	461a      	mov	r2, r3
    d3f6:	f7fe ef6a 	blx	c2cc <_init+0x344>
    d3fa:	f107 0218 	add.w	r2, r7, #24
    d3fe:	f107 031c 	add.w	r3, r7, #28
    d402:	2100      	movs	r1, #0
    d404:	9100      	str	r1, [sp, #0]
    d406:	2100      	movs	r1, #0
    d408:	9101      	str	r1, [sp, #4]
    d40a:	4610      	mov	r0, r2
    d40c:	4619      	mov	r1, r3
    d40e:	f248 1238 	movw	r2, #33080	; 0x8138
    d412:	f2c0 0201 	movt	r2, #1
    d416:	230a      	movs	r3, #10
    d418:	f7fe eeec 	blx	c1f4 <_init+0x26c>
    d41c:	f107 031c 	add.w	r3, r7, #28
    d420:	4618      	mov	r0, r3
    d422:	f7fe ef4e 	blx	c2c0 <_init+0x338>
    d426:	f107 037c 	add.w	r3, r7, #124	; 0x7c
    d42a:	4618      	mov	r0, r3
    d42c:	f7fe ef66 	blx	c2fc <_init+0x374>
    d430:	f107 0318 	add.w	r3, r7, #24
    d434:	4618      	mov	r0, r3
    d436:	f7fe ef44 	blx	c2c0 <_init+0x338>
    d43a:	f107 0370 	add.w	r3, r7, #112	; 0x70
    d43e:	4618      	mov	r0, r3
    d440:	f7fe ef5c 	blx	c2fc <_init+0x374>
    d444:	f107 0370 	add.w	r3, r7, #112	; 0x70
    d448:	4618      	mov	r0, r3
    d44a:	f7fe eef2 	blx	c230 <_init+0x2a8>
    d44e:	f107 0220 	add.w	r2, r7, #32
    d452:	f107 0370 	add.w	r3, r7, #112	; 0x70
    d456:	4610      	mov	r0, r2
    d458:	f64e 412c 	movw	r1, #60460	; 0xec2c
    d45c:	f2c0 0100 	movt	r1, #0
    d460:	461a      	mov	r2, r3
    d462:	f7fe ef34 	blx	c2cc <_init+0x344>
    d466:	f107 037c 	add.w	r3, r7, #124	; 0x7c
    d46a:	4618      	mov	r0, r3
    d46c:	f7fe eee0 	blx	c230 <_init+0x2a8>
    d470:	f107 0224 	add.w	r2, r7, #36	; 0x24
    d474:	f107 037c 	add.w	r3, r7, #124	; 0x7c
    d478:	4610      	mov	r0, r2
    d47a:	f64e 4104 	movw	r1, #60420	; 0xec04
    d47e:	f2c0 0100 	movt	r1, #0
    d482:	461a      	mov	r2, r3
    d484:	f7fe ef22 	blx	c2cc <_init+0x344>
    d488:	f107 0120 	add.w	r1, r7, #32
    d48c:	f107 0224 	add.w	r2, r7, #36	; 0x24
    d490:	f107 0310 	add.w	r3, r7, #16
    d494:	2000      	movs	r0, #0
    d496:	9000      	str	r0, [sp, #0]
    d498:	2000      	movs	r0, #0
    d49a:	9001      	str	r0, [sp, #4]
    d49c:	4608      	mov	r0, r1
    d49e:	4611      	mov	r1, r2
    d4a0:	461a      	mov	r2, r3
    d4a2:	230a      	movs	r3, #10
    d4a4:	f7fe eea6 	blx	c1f4 <_init+0x26c>
    d4a8:	f107 0324 	add.w	r3, r7, #36	; 0x24
    d4ac:	4618      	mov	r0, r3
    d4ae:	f7fe ef08 	blx	c2c0 <_init+0x338>
    d4b2:	f107 037c 	add.w	r3, r7, #124	; 0x7c
    d4b6:	4618      	mov	r0, r3
    d4b8:	f7fe ef20 	blx	c2fc <_init+0x374>
    d4bc:	f107 0320 	add.w	r3, r7, #32
    d4c0:	4618      	mov	r0, r3
    d4c2:	f7fe eefe 	blx	c2c0 <_init+0x338>
    d4c6:	f107 0370 	add.w	r3, r7, #112	; 0x70
    d4ca:	4618      	mov	r0, r3
    d4cc:	f7fe ef16 	blx	c2fc <_init+0x374>
    d4d0:	f107 0370 	add.w	r3, r7, #112	; 0x70
    d4d4:	4618      	mov	r0, r3
    d4d6:	f7fe eeac 	blx	c230 <_init+0x2a8>
    d4da:	f107 0228 	add.w	r2, r7, #40	; 0x28
    d4de:	f107 0370 	add.w	r3, r7, #112	; 0x70
    d4e2:	4610      	mov	r0, r2
    d4e4:	f64e 4148 	movw	r1, #60488	; 0xec48
    d4e8:	f2c0 0100 	movt	r1, #0
    d4ec:	461a      	mov	r2, r3
    d4ee:	f7fe eeee 	blx	c2cc <_init+0x344>
    d4f2:	f107 037c 	add.w	r3, r7, #124	; 0x7c
    d4f6:	4618      	mov	r0, r3
    d4f8:	f7fe ee9a 	blx	c230 <_init+0x2a8>
    d4fc:	f107 022c 	add.w	r2, r7, #44	; 0x2c
    d500:	f107 037c 	add.w	r3, r7, #124	; 0x7c
    d504:	4610      	mov	r0, r2
    d506:	f64e 4104 	movw	r1, #60420	; 0xec04
    d50a:	f2c0 0100 	movt	r1, #0
    d50e:	461a      	mov	r2, r3
    d510:	f7fe eedc 	blx	c2cc <_init+0x344>
    d514:	f107 0228 	add.w	r2, r7, #40	; 0x28
    d518:	f107 032c 	add.w	r3, r7, #44	; 0x2c
    d51c:	2100      	movs	r1, #0
    d51e:	9100      	str	r1, [sp, #0]
    d520:	2100      	movs	r1, #0
    d522:	9101      	str	r1, [sp, #4]
    d524:	4610      	mov	r0, r2
    d526:	4619      	mov	r1, r3
    d528:	f248 1240 	movw	r2, #33088	; 0x8140
    d52c:	f2c0 0201 	movt	r2, #1
    d530:	2364      	movs	r3, #100	; 0x64
    d532:	f7fe ee60 	blx	c1f4 <_init+0x26c>
    d536:	f107 032c 	add.w	r3, r7, #44	; 0x2c
    d53a:	4618      	mov	r0, r3
    d53c:	f7fe eec0 	blx	c2c0 <_init+0x338>
    d540:	f107 037c 	add.w	r3, r7, #124	; 0x7c
    d544:	4618      	mov	r0, r3
    d546:	f7fe eeda 	blx	c2fc <_init+0x374>
    d54a:	f107 0328 	add.w	r3, r7, #40	; 0x28
    d54e:	4618      	mov	r0, r3
    d550:	f7fe eeb6 	blx	c2c0 <_init+0x338>
    d554:	f107 0370 	add.w	r3, r7, #112	; 0x70
    d558:	4618      	mov	r0, r3
    d55a:	f7fe eed0 	blx	c2fc <_init+0x374>
    d55e:	f107 0370 	add.w	r3, r7, #112	; 0x70
    d562:	4618      	mov	r0, r3
    d564:	f7fe ee64 	blx	c230 <_init+0x2a8>
    d568:	f107 0230 	add.w	r2, r7, #48	; 0x30
    d56c:	f107 0370 	add.w	r3, r7, #112	; 0x70
    d570:	4610      	mov	r0, r2
    d572:	f64e 4164 	movw	r1, #60516	; 0xec64
    d576:	f2c0 0100 	movt	r1, #0
    d57a:	461a      	mov	r2, r3
    d57c:	f7fe eea6 	blx	c2cc <_init+0x344>
    d580:	f107 037c 	add.w	r3, r7, #124	; 0x7c
    d584:	4618      	mov	r0, r3
    d586:	f7fe ee54 	blx	c230 <_init+0x2a8>
    d58a:	f107 0234 	add.w	r2, r7, #52	; 0x34
    d58e:	f107 037c 	add.w	r3, r7, #124	; 0x7c
    d592:	4610      	mov	r0, r2
    d594:	f64e 4104 	movw	r1, #60420	; 0xec04
    d598:	f2c0 0100 	movt	r1, #0
    d59c:	461a      	mov	r2, r3
    d59e:	f7fe ee96 	blx	c2cc <_init+0x344>
    d5a2:	f107 0230 	add.w	r2, r7, #48	; 0x30
    d5a6:	f107 0334 	add.w	r3, r7, #52	; 0x34
    d5aa:	2100      	movs	r1, #0
    d5ac:	9100      	str	r1, [sp, #0]
    d5ae:	2100      	movs	r1, #0
    d5b0:	9101      	str	r1, [sp, #4]
    d5b2:	4610      	mov	r0, r2
    d5b4:	4619      	mov	r1, r3
    d5b6:	f248 1244 	movw	r2, #33092	; 0x8144
    d5ba:	f2c0 0201 	movt	r2, #1
    d5be:	2364      	movs	r3, #100	; 0x64
    d5c0:	f7fe ee18 	blx	c1f4 <_init+0x26c>
    d5c4:	f107 0334 	add.w	r3, r7, #52	; 0x34
    d5c8:	4618      	mov	r0, r3
    d5ca:	f7fe ee7a 	blx	c2c0 <_init+0x338>
    d5ce:	f107 037c 	add.w	r3, r7, #124	; 0x7c
    d5d2:	4618      	mov	r0, r3
    d5d4:	f7fe ee92 	blx	c2fc <_init+0x374>
    d5d8:	f107 0330 	add.w	r3, r7, #48	; 0x30
    d5dc:	4618      	mov	r0, r3
    d5de:	f7fe ee70 	blx	c2c0 <_init+0x338>
    d5e2:	f107 0370 	add.w	r3, r7, #112	; 0x70
    d5e6:	4618      	mov	r0, r3
    d5e8:	f7fe ee88 	blx	c2fc <_init+0x374>
    d5ec:	f107 0370 	add.w	r3, r7, #112	; 0x70
    d5f0:	4618      	mov	r0, r3
    d5f2:	f7fe ee1e 	blx	c230 <_init+0x2a8>
    d5f6:	f107 0238 	add.w	r2, r7, #56	; 0x38
    d5fa:	f107 0370 	add.w	r3, r7, #112	; 0x70
    d5fe:	4610      	mov	r0, r2
    d600:	f64e 4180 	movw	r1, #60544	; 0xec80
    d604:	f2c0 0100 	movt	r1, #0
    d608:	461a      	mov	r2, r3
    d60a:	f7fe ee60 	blx	c2cc <_init+0x344>
    d60e:	f107 037c 	add.w	r3, r7, #124	; 0x7c
    d612:	4618      	mov	r0, r3
    d614:	f7fe ee0c 	blx	c230 <_init+0x2a8>
    d618:	f107 023c 	add.w	r2, r7, #60	; 0x3c
    d61c:	f107 037c 	add.w	r3, r7, #124	; 0x7c
    d620:	4610      	mov	r0, r2
    d622:	f64e 4104 	movw	r1, #60420	; 0xec04
    d626:	f2c0 0100 	movt	r1, #0
    d62a:	461a      	mov	r2, r3
    d62c:	f7fe ee4e 	blx	c2cc <_init+0x344>
    d630:	f107 0238 	add.w	r2, r7, #56	; 0x38
    d634:	f107 033c 	add.w	r3, r7, #60	; 0x3c
    d638:	2100      	movs	r1, #0
    d63a:	9100      	str	r1, [sp, #0]
    d63c:	2100      	movs	r1, #0
    d63e:	9101      	str	r1, [sp, #4]
    d640:	4610      	mov	r0, r2
    d642:	4619      	mov	r1, r3
    d644:	f248 1248 	movw	r2, #33096	; 0x8148
    d648:	f2c0 0201 	movt	r2, #1
    d64c:	230a      	movs	r3, #10
    d64e:	f7fe edd2 	blx	c1f4 <_init+0x26c>
    d652:	f107 033c 	add.w	r3, r7, #60	; 0x3c
    d656:	4618      	mov	r0, r3
    d658:	f7fe ee32 	blx	c2c0 <_init+0x338>
    d65c:	f107 037c 	add.w	r3, r7, #124	; 0x7c
    d660:	4618      	mov	r0, r3
    d662:	f7fe ee4c 	blx	c2fc <_init+0x374>
    d666:	f107 0338 	add.w	r3, r7, #56	; 0x38
    d66a:	4618      	mov	r0, r3
    d66c:	f7fe ee28 	blx	c2c0 <_init+0x338>
    d670:	f107 0370 	add.w	r3, r7, #112	; 0x70
    d674:	4618      	mov	r0, r3
    d676:	f7fe ee42 	blx	c2fc <_init+0x374>
    d67a:	f107 033c 	add.w	r3, r7, #60	; 0x3c
    d67e:	4618      	mov	r0, r3
    d680:	f7fe edd6 	blx	c230 <_init+0x2a8>
    d684:	f107 0240 	add.w	r2, r7, #64	; 0x40
    d688:	f107 033c 	add.w	r3, r7, #60	; 0x3c
    d68c:	4610      	mov	r0, r2
    d68e:	f64e 4194 	movw	r1, #60564	; 0xec94
    d692:	f2c0 0100 	movt	r1, #0
    d696:	461a      	mov	r2, r3
    d698:	f7fe ee18 	blx	c2cc <_init+0x344>
    d69c:	f107 037c 	add.w	r3, r7, #124	; 0x7c
    d6a0:	4618      	mov	r0, r3
    d6a2:	f7fe edc6 	blx	c230 <_init+0x2a8>
    d6a6:	f107 0270 	add.w	r2, r7, #112	; 0x70
    d6aa:	f107 037c 	add.w	r3, r7, #124	; 0x7c
    d6ae:	4610      	mov	r0, r2
    d6b0:	f64e 4104 	movw	r1, #60420	; 0xec04
    d6b4:	f2c0 0100 	movt	r1, #0
    d6b8:	461a      	mov	r2, r3
    d6ba:	f7fe ee08 	blx	c2cc <_init+0x344>
    d6be:	f107 0240 	add.w	r2, r7, #64	; 0x40
    d6c2:	f107 0370 	add.w	r3, r7, #112	; 0x70
    d6c6:	2100      	movs	r1, #0
    d6c8:	9100      	str	r1, [sp, #0]
    d6ca:	2100      	movs	r1, #0
    d6cc:	9101      	str	r1, [sp, #4]
    d6ce:	4610      	mov	r0, r2
    d6d0:	4619      	mov	r1, r3
    d6d2:	f248 124c 	movw	r2, #33100	; 0x814c
    d6d6:	f2c0 0201 	movt	r2, #1
    d6da:	2314      	movs	r3, #20
    d6dc:	f7fe ed8a 	blx	c1f4 <_init+0x26c>
    d6e0:	f107 0370 	add.w	r3, r7, #112	; 0x70
    d6e4:	4618      	mov	r0, r3
    d6e6:	f7fe edec 	blx	c2c0 <_init+0x338>
    d6ea:	f107 037c 	add.w	r3, r7, #124	; 0x7c
    d6ee:	4618      	mov	r0, r3
    d6f0:	f7fe ee04 	blx	c2fc <_init+0x374>
    d6f4:	f107 0340 	add.w	r3, r7, #64	; 0x40
    d6f8:	4618      	mov	r0, r3
    d6fa:	f7fe ede2 	blx	c2c0 <_init+0x338>
    d6fe:	f107 033c 	add.w	r3, r7, #60	; 0x3c
    d702:	4618      	mov	r0, r3
    d704:	f7fe edfa 	blx	c2fc <_init+0x374>
    d708:	1d3b      	adds	r3, r7, #4
    d70a:	681b      	ldr	r3, [r3, #0]
    d70c:	2b01      	cmp	r3, #1
    d70e:	dc14      	bgt.n	d73a <main+0x486>
    d710:	f248 2024 	movw	r0, #33316	; 0x8224
    d714:	f2c0 0001 	movt	r0, #1
    d718:	f64e 41a4 	movw	r1, #60580	; 0xeca4
    d71c:	f2c0 0100 	movt	r1, #0
    d720:	f7fe ecc6 	blx	c0b0 <_init+0x128>
    d724:	4603      	mov	r3, r0
    d726:	4618      	mov	r0, r3
    d728:	f24c 2160 	movw	r1, #49760	; 0xc260
    d72c:	f2c0 0100 	movt	r1, #0
    d730:	f7fe eda2 	blx	c278 <_init+0x2f0>
    d734:	2001      	movs	r0, #1
    d736:	f7fe edac 	blx	c290 <_init+0x308>
    d73a:	e1b1      	b.n	daa0 <main+0x7ec>
    d73c:	463b      	mov	r3, r7
    d73e:	681b      	ldr	r3, [r3, #0]
    d740:	3304      	adds	r3, #4
    d742:	681b      	ldr	r3, [r3, #0]
    d744:	4618      	mov	r0, r3
    d746:	f7fe ece4 	blx	c110 <_init+0x188>
    d74a:	4602      	mov	r2, r0
    d74c:	f107 030c 	add.w	r3, r7, #12
    d750:	4610      	mov	r0, r2
    d752:	4619      	mov	r1, r3
    d754:	f7ff fcd2 	bl	d0fc <_Z15make_connectioniPi>
    d758:	4603      	mov	r3, r0
    d75a:	65bb      	str	r3, [r7, #88]	; 0x58
    d75c:	6dbb      	ldr	r3, [r7, #88]	; 0x58
    d75e:	2b00      	cmp	r3, #0
    d760:	da06      	bge.n	d770 <main+0x4bc>
    d762:	f64e 40e0 	movw	r0, #60640	; 0xece0
    d766:	f2c0 0000 	movt	r0, #0
    d76a:	f7fe ed3e 	blx	c1e8 <_init+0x260>
    d76e:	e197      	b.n	daa0 <main+0x7ec>
    d770:	f248 2024 	movw	r0, #33316	; 0x8224
    d774:	f2c0 0001 	movt	r0, #1
    d778:	f64e 41f8 	movw	r1, #60664	; 0xecf8
    d77c:	f2c0 0100 	movt	r1, #0
    d780:	f7fe ec96 	blx	c0b0 <_init+0x128>
    d784:	4603      	mov	r3, r0
    d786:	4618      	mov	r0, r3
    d788:	f24c 2160 	movw	r1, #49760	; 0xc260
    d78c:	f2c0 0100 	movt	r1, #0
    d790:	f7fe ed72 	blx	c278 <_init+0x2f0>
    d794:	2300      	movs	r3, #0
    d796:	64bb      	str	r3, [r7, #72]	; 0x48
    d798:	e17b      	b.n	da92 <main+0x7de>
    d79a:	2300      	movs	r3, #0
    d79c:	647b      	str	r3, [r7, #68]	; 0x44
    d79e:	e077      	b.n	d890 <main+0x5dc>
    d7a0:	f107 037c 	add.w	r3, r7, #124	; 0x7c
    d7a4:	65fb      	str	r3, [r7, #92]	; 0x5c
    d7a6:	2300      	movs	r3, #0
    d7a8:	64fb      	str	r3, [r7, #76]	; 0x4c
    d7aa:	e007      	b.n	d7bc <main+0x508>
    d7ac:	6dfb      	ldr	r3, [r7, #92]	; 0x5c
    d7ae:	6cfa      	ldr	r2, [r7, #76]	; 0x4c
    d7b0:	2100      	movs	r1, #0
    d7b2:	f843 1022 	str.w	r1, [r3, r2, lsl #2]
    d7b6:	6cfb      	ldr	r3, [r7, #76]	; 0x4c
    d7b8:	3301      	adds	r3, #1
    d7ba:	64fb      	str	r3, [r7, #76]	; 0x4c
    d7bc:	2220      	movs	r2, #32
    d7be:	6cfb      	ldr	r3, [r7, #76]	; 0x4c
    d7c0:	429a      	cmp	r2, r3
    d7c2:	d8f3      	bhi.n	d7ac <main+0x4f8>
    d7c4:	2304      	movs	r3, #4
    d7c6:	00db      	lsls	r3, r3, #3
    d7c8:	6db8      	ldr	r0, [r7, #88]	; 0x58
    d7ca:	4619      	mov	r1, r3
    d7cc:	f7fe ece8 	blx	c1a0 <_init+0x218>
    d7d0:	4603      	mov	r3, r0
    d7d2:	461c      	mov	r4, r3
    d7d4:	00a3      	lsls	r3, r4, #2
    d7d6:	f507 7188 	add.w	r1, r7, #272	; 0x110
    d7da:	440b      	add	r3, r1
    d7dc:	f853 5c94 	ldr.w	r5, [r3, #-148]
    d7e0:	2304      	movs	r3, #4
    d7e2:	00db      	lsls	r3, r3, #3
    d7e4:	6dba      	ldr	r2, [r7, #88]	; 0x58
    d7e6:	4610      	mov	r0, r2
    d7e8:	4619      	mov	r1, r3
    d7ea:	f7fe ec02 	blx	bff0 <_init+0x68>
    d7ee:	460b      	mov	r3, r1
    d7f0:	2201      	movs	r2, #1
    d7f2:	fa02 f303 	lsl.w	r3, r2, r3
    d7f6:	ea45 0203 	orr.w	r2, r5, r3
    d7fa:	00a3      	lsls	r3, r4, #2
    d7fc:	f507 7188 	add.w	r1, r7, #272	; 0x110
    d800:	440b      	add	r3, r1
    d802:	f843 2c94 	str.w	r2, [r3, #-148]
    d806:	230a      	movs	r3, #10
    d808:	673b      	str	r3, [r7, #112]	; 0x70
    d80a:	2300      	movs	r3, #0
    d80c:	677b      	str	r3, [r7, #116]	; 0x74
    d80e:	6dbb      	ldr	r3, [r7, #88]	; 0x58
    d810:	1c5a      	adds	r2, r3, #1
    d812:	f107 037c 	add.w	r3, r7, #124	; 0x7c
    d816:	f107 0170 	add.w	r1, r7, #112	; 0x70
    d81a:	9100      	str	r1, [sp, #0]
    d81c:	4610      	mov	r0, r2
    d81e:	4619      	mov	r1, r3
    d820:	2200      	movs	r2, #0
    d822:	2300      	movs	r3, #0
    d824:	f7fe ecaa 	blx	c17c <_init+0x1f4>
    d828:	4603      	mov	r3, r0
    d82a:	663b      	str	r3, [r7, #96]	; 0x60
    d82c:	6e3b      	ldr	r3, [r7, #96]	; 0x60
    d82e:	2b00      	cmp	r3, #0
    d830:	dc0b      	bgt.n	d84a <main+0x596>
    d832:	6e3b      	ldr	r3, [r7, #96]	; 0x60
    d834:	2b00      	cmp	r3, #0
    d836:	da05      	bge.n	d844 <main+0x590>
    d838:	f64e 5004 	movw	r0, #60676	; 0xed04
    d83c:	f2c0 0000 	movt	r0, #0
    d840:	f7fe ecd2 	blx	c1e8 <_init+0x260>
    d844:	2301      	movs	r3, #1
    d846:	64bb      	str	r3, [r7, #72]	; 0x48
    d848:	e025      	b.n	d896 <main+0x5e2>
    d84a:	f107 02fc 	add.w	r2, r7, #252	; 0xfc
    d84e:	6c7b      	ldr	r3, [r7, #68]	; 0x44
    d850:	441a      	add	r2, r3
    d852:	6c7b      	ldr	r3, [r7, #68]	; 0x44
    d854:	f1c3 0310 	rsb	r3, r3, #16
    d858:	3b01      	subs	r3, #1
    d85a:	6db8      	ldr	r0, [r7, #88]	; 0x58
    d85c:	4611      	mov	r1, r2
    d85e:	461a      	mov	r2, r3
    d860:	f7fe ed22 	blx	c2a8 <_init+0x320>
    d864:	4603      	mov	r3, r0
    d866:	663b      	str	r3, [r7, #96]	; 0x60
    d868:	6e3b      	ldr	r3, [r7, #96]	; 0x60
    d86a:	2b00      	cmp	r3, #0
    d86c:	dc0c      	bgt.n	d888 <main+0x5d4>
    d86e:	6e3b      	ldr	r3, [r7, #96]	; 0x60
    d870:	2b00      	cmp	r3, #0
    d872:	da05      	bge.n	d880 <main+0x5cc>
    d874:	f64e 500c 	movw	r0, #60684	; 0xed0c
    d878:	f2c0 0000 	movt	r0, #0
    d87c:	f7fe ecb4 	blx	c1e8 <_init+0x260>
    d880:	2301      	movs	r3, #1
    d882:	64bb      	str	r3, [r7, #72]	; 0x48
    d884:	bf00      	nop
    d886:	e006      	b.n	d896 <main+0x5e2>
    d888:	6c7a      	ldr	r2, [r7, #68]	; 0x44
    d88a:	6e3b      	ldr	r3, [r7, #96]	; 0x60
    d88c:	4413      	add	r3, r2
    d88e:	647b      	str	r3, [r7, #68]	; 0x44
    d890:	6c7b      	ldr	r3, [r7, #68]	; 0x44
    d892:	2b03      	cmp	r3, #3
    d894:	dd84      	ble.n	d7a0 <main+0x4ec>
    d896:	6cbb      	ldr	r3, [r7, #72]	; 0x48
    d898:	2b00      	cmp	r3, #0
    d89a:	d012      	beq.n	d8c2 <main+0x60e>
    d89c:	f248 2024 	movw	r0, #33316	; 0x8224
    d8a0:	f2c0 0001 	movt	r0, #1
    d8a4:	f64e 5114 	movw	r1, #60692	; 0xed14
    d8a8:	f2c0 0100 	movt	r1, #0
    d8ac:	f7fe ec00 	blx	c0b0 <_init+0x128>
    d8b0:	4603      	mov	r3, r0
    d8b2:	4618      	mov	r0, r3
    d8b4:	f24c 2160 	movw	r1, #49760	; 0xc260
    d8b8:	f2c0 0100 	movt	r1, #0
    d8bc:	f7fe ecdc 	blx	c278 <_init+0x2f0>
    d8c0:	e0e7      	b.n	da92 <main+0x7de>
    d8c2:	f248 2024 	movw	r0, #33316	; 0x8224
    d8c6:	f2c0 0001 	movt	r0, #1
    d8ca:	f64e 5150 	movw	r1, #60752	; 0xed50
    d8ce:	f2c0 0100 	movt	r1, #0
    d8d2:	f7fe ebee 	blx	c0b0 <_init+0x128>
    d8d6:	4603      	mov	r3, r0
    d8d8:	4618      	mov	r0, r3
    d8da:	f64d 6121 	movw	r1, #56865	; 0xde21
    d8de:	f2c0 0100 	movt	r1, #0
    d8e2:	f7fe ed06 	blx	c2f0 <_init+0x368>
    d8e6:	4602      	mov	r2, r0
    d8e8:	f897 30fc 	ldrb.w	r3, [r7, #252]	; 0xfc
    d8ec:	4610      	mov	r0, r2
    d8ee:	4619      	mov	r1, r3
    d8f0:	f7fe ec4a 	blx	c188 <_init+0x200>
    d8f4:	4603      	mov	r3, r0
    d8f6:	4618      	mov	r0, r3
    d8f8:	f64e 515c 	movw	r1, #60764	; 0xed5c
    d8fc:	f2c0 0100 	movt	r1, #0
    d900:	f7fe ebd6 	blx	c0b0 <_init+0x128>
    d904:	4602      	mov	r2, r0
    d906:	f897 30fd 	ldrb.w	r3, [r7, #253]	; 0xfd
    d90a:	4610      	mov	r0, r2
    d90c:	4619      	mov	r1, r3
    d90e:	f7fe ec3c 	blx	c188 <_init+0x200>
    d912:	4603      	mov	r3, r0
    d914:	4618      	mov	r0, r3
    d916:	f64e 515c 	movw	r1, #60764	; 0xed5c
    d91a:	f2c0 0100 	movt	r1, #0
    d91e:	f7fe ebc8 	blx	c0b0 <_init+0x128>
    d922:	4602      	mov	r2, r0
    d924:	f897 30fe 	ldrb.w	r3, [r7, #254]	; 0xfe
    d928:	4610      	mov	r0, r2
    d92a:	4619      	mov	r1, r3
    d92c:	f7fe ec2c 	blx	c188 <_init+0x200>
    d930:	4603      	mov	r3, r0
    d932:	4618      	mov	r0, r3
    d934:	f64e 515c 	movw	r1, #60764	; 0xed5c
    d938:	f2c0 0100 	movt	r1, #0
    d93c:	f7fe ebb8 	blx	c0b0 <_init+0x128>
    d940:	4602      	mov	r2, r0
    d942:	f897 30ff 	ldrb.w	r3, [r7, #255]	; 0xff
    d946:	4610      	mov	r0, r2
    d948:	4619      	mov	r1, r3
    d94a:	f7fe ec1e 	blx	c188 <_init+0x200>
    d94e:	4603      	mov	r3, r0
    d950:	4618      	mov	r0, r3
    d952:	f24c 2160 	movw	r1, #49760	; 0xc260
    d956:	f2c0 0100 	movt	r1, #0
    d95a:	f7fe ec8e 	blx	c278 <_init+0x2f0>
    d95e:	f897 30ff 	ldrb.w	r3, [r7, #255]	; 0xff
    d962:	2b00      	cmp	r3, #0
    d964:	d114      	bne.n	d990 <main+0x6dc>
    d966:	2301      	movs	r3, #1
    d968:	64bb      	str	r3, [r7, #72]	; 0x48
    d96a:	f248 2024 	movw	r0, #33316	; 0x8224
    d96e:	f2c0 0001 	movt	r0, #1
    d972:	f64e 5160 	movw	r1, #60768	; 0xed60
    d976:	f2c0 0100 	movt	r1, #0
    d97a:	f7fe eb9a 	blx	c0b0 <_init+0x128>
    d97e:	4603      	mov	r3, r0
    d980:	4618      	mov	r0, r3
    d982:	f24c 2160 	movw	r1, #49760	; 0xc260
    d986:	f2c0 0100 	movt	r1, #0
    d98a:	f7fe ec76 	blx	c278 <_init+0x2f0>
    d98e:	e080      	b.n	da92 <main+0x7de>
    d990:	f897 30ff 	ldrb.w	r3, [r7, #255]	; 0xff
    d994:	2b01      	cmp	r3, #1
    d996:	d17c      	bne.n	da92 <main+0x7de>
    d998:	f107 0370 	add.w	r3, r7, #112	; 0x70
    d99c:	4618      	mov	r0, r3
    d99e:	f000 fd43 	bl	e428 <_ZNSt6vectorIN2cv3VecIfLi3EEESaIS2_EEC1Ev>
    d9a2:	f107 027c 	add.w	r2, r7, #124	; 0x7c
    d9a6:	f107 0364 	add.w	r3, r7, #100	; 0x64
    d9aa:	4610      	mov	r0, r2
    d9ac:	4619      	mov	r1, r3
    d9ae:	f000 fbc1 	bl	e134 <_ZN2cv12VideoCaptureC1ERKS0_>
    d9b2:	f107 027c 	add.w	r2, r7, #124	; 0x7c
    d9b6:	f107 0370 	add.w	r3, r7, #112	; 0x70
    d9ba:	4610      	mov	r0, r2
    d9bc:	4619      	mov	r1, r3
    d9be:	f7ff fadf 	bl	cf80 <_Z14displayCirclesN2cv12VideoCaptureERSt6vectorINS_3VecIfLi3EEESaIS3_EE>
    d9c2:	f107 037c 	add.w	r3, r7, #124	; 0x7c
    d9c6:	4618      	mov	r0, r3
    d9c8:	f7fe ebcc 	blx	c164 <_init+0x1dc>
    d9cc:	f107 0370 	add.w	r3, r7, #112	; 0x70
    d9d0:	4618      	mov	r0, r3
    d9d2:	2100      	movs	r1, #0
    d9d4:	f000 fcca 	bl	e36c <_ZNSt6vectorIN2cv3VecIfLi3EEESaIS2_EEixEj>
    d9d8:	4603      	mov	r3, r0
    d9da:	4618      	mov	r0, r3
    d9dc:	2100      	movs	r1, #0
    d9de:	f000 fcd9 	bl	e394 <_ZN2cv3VecIfLi3EEixEi>
    d9e2:	4603      	mov	r3, r0
    d9e4:	edd3 7a00 	vldr	s15, [r3]
    d9e8:	eefc 7ae7 	vcvt.u32.f32	s15, s15
    d9ec:	ee17 2a90 	vmov	r2, s15
    d9f0:	f107 03fc 	add.w	r3, r7, #252	; 0xfc
    d9f4:	4618      	mov	r0, r3
    d9f6:	4611      	mov	r1, r2
    d9f8:	f7ff fc3c 	bl	d274 <_Z11fill_bufferPhj>
    d9fc:	f107 0370 	add.w	r3, r7, #112	; 0x70
    da00:	4618      	mov	r0, r3
    da02:	2100      	movs	r1, #0
    da04:	f000 fcb2 	bl	e36c <_ZNSt6vectorIN2cv3VecIfLi3EEESaIS2_EEixEj>
    da08:	4603      	mov	r3, r0
    da0a:	4618      	mov	r0, r3
    da0c:	2101      	movs	r1, #1
    da0e:	f000 fcc1 	bl	e394 <_ZN2cv3VecIfLi3EEixEi>
    da12:	4603      	mov	r3, r0
    da14:	edd3 7a00 	vldr	s15, [r3]
    da18:	eefc 7ae7 	vcvt.u32.f32	s15, s15
    da1c:	ee17 2a90 	vmov	r2, s15
    da20:	f107 03fc 	add.w	r3, r7, #252	; 0xfc
    da24:	3304      	adds	r3, #4
    da26:	4618      	mov	r0, r3
    da28:	4611      	mov	r1, r2
    da2a:	f7ff fc23 	bl	d274 <_Z11fill_bufferPhj>
    da2e:	f107 0370 	add.w	r3, r7, #112	; 0x70
    da32:	4618      	mov	r0, r3
    da34:	2100      	movs	r1, #0
    da36:	f000 fc99 	bl	e36c <_ZNSt6vectorIN2cv3VecIfLi3EEESaIS2_EEixEj>
    da3a:	4603      	mov	r3, r0
    da3c:	4618      	mov	r0, r3
    da3e:	2102      	movs	r1, #2
    da40:	f000 fca8 	bl	e394 <_ZN2cv3VecIfLi3EEixEi>
    da44:	4603      	mov	r3, r0
    da46:	edd3 7a00 	vldr	s15, [r3]
    da4a:	eefc 7ae7 	vcvt.u32.f32	s15, s15
    da4e:	ee17 2a90 	vmov	r2, s15
    da52:	f107 03fc 	add.w	r3, r7, #252	; 0xfc
    da56:	3308      	adds	r3, #8
    da58:	4618      	mov	r0, r3
    da5a:	4611      	mov	r1, r2
    da5c:	f7ff fc0a 	bl	d274 <_Z11fill_bufferPhj>
    da60:	f107 03fc 	add.w	r3, r7, #252	; 0xfc
    da64:	6db8      	ldr	r0, [r7, #88]	; 0x58
    da66:	4619      	mov	r1, r3
    da68:	220c      	movs	r2, #12
    da6a:	f7fe eac8 	blx	bffc <_init+0x74>
    da6e:	4603      	mov	r3, r0
    da70:	663b      	str	r3, [r7, #96]	; 0x60
    da72:	6e3b      	ldr	r3, [r7, #96]	; 0x60
    da74:	2b00      	cmp	r3, #0
    da76:	da07      	bge.n	da88 <main+0x7d4>
    da78:	f64e 5090 	movw	r0, #60816	; 0xed90
    da7c:	f2c0 0000 	movt	r0, #0
    da80:	f7fe ebb2 	blx	c1e8 <_init+0x260>
    da84:	2301      	movs	r3, #1
    da86:	64bb      	str	r3, [r7, #72]	; 0x48
    da88:	f107 0370 	add.w	r3, r7, #112	; 0x70
    da8c:	4618      	mov	r0, r3
    da8e:	f000 fcd9 	bl	e444 <_ZNSt6vectorIN2cv3VecIfLi3EEESaIS2_EED1Ev>
    da92:	6cbb      	ldr	r3, [r7, #72]	; 0x48
    da94:	2b00      	cmp	r3, #0
    da96:	f43f ae80 	beq.w	d79a <main+0x4e6>
    da9a:	6db8      	ldr	r0, [r7, #88]	; 0x58
    da9c:	f7fe eb02 	blx	c0a4 <_init+0x11c>
    daa0:	6d7b      	ldr	r3, [r7, #84]	; 0x54
    daa2:	2b00      	cmp	r3, #0
    daa4:	f43f ae4a 	beq.w	d73c <main+0x488>
    daa8:	f107 030c 	add.w	r3, r7, #12
    daac:	681b      	ldr	r3, [r3, #0]
    daae:	4618      	mov	r0, r3
    dab0:	f7fe eaf8 	blx	c0a4 <_init+0x11c>
    dab4:	2400      	movs	r4, #0
    dab6:	f107 0364 	add.w	r3, r7, #100	; 0x64
    daba:	4618      	mov	r0, r3
    dabc:	f7fe eb52 	blx	c164 <_init+0x1dc>
    dac0:	4623      	mov	r3, r4
    dac2:	4618      	mov	r0, r3
    dac4:	f248 2320 	movw	r3, #33312	; 0x8220
    dac8:	f2c0 0301 	movt	r3, #1
    dacc:	f8d7 210c 	ldr.w	r2, [r7, #268]	; 0x10c
    dad0:	681b      	ldr	r3, [r3, #0]
    dad2:	429a      	cmp	r2, r3
    dad4:	f000 80bf 	beq.w	dc56 <main+0x9a2>
    dad8:	e0bb      	b.n	dc52 <main+0x99e>
    dada:	f107 037c 	add.w	r3, r7, #124	; 0x7c
    dade:	4618      	mov	r0, r3
    dae0:	f7fe ebee 	blx	c2c0 <_init+0x338>
    dae4:	e005      	b.n	daf2 <main+0x83e>
    dae6:	f107 0364 	add.w	r3, r7, #100	; 0x64
    daea:	4618      	mov	r0, r3
    daec:	f7fe eb3a 	blx	c164 <_init+0x1dc>
    daf0:	e7ff      	b.n	daf2 <main+0x83e>
    daf2:	f107 0370 	add.w	r3, r7, #112	; 0x70
    daf6:	4618      	mov	r0, r3
    daf8:	f7fe ec00 	blx	c2fc <_init+0x374>
    dafc:	f7fe eb9e 	blx	c23c <_init+0x2b4>
    db00:	f107 0314 	add.w	r3, r7, #20
    db04:	4618      	mov	r0, r3
    db06:	f7fe ebdc 	blx	c2c0 <_init+0x338>
    db0a:	e7ff      	b.n	db0c <main+0x858>
    db0c:	f107 037c 	add.w	r3, r7, #124	; 0x7c
    db10:	4618      	mov	r0, r3
    db12:	f7fe ebf4 	blx	c2fc <_init+0x374>
    db16:	e095      	b.n	dc44 <main+0x990>
    db18:	f107 031c 	add.w	r3, r7, #28
    db1c:	4618      	mov	r0, r3
    db1e:	f7fe ebd0 	blx	c2c0 <_init+0x338>
    db22:	e7ff      	b.n	db24 <main+0x870>
    db24:	f107 037c 	add.w	r3, r7, #124	; 0x7c
    db28:	4618      	mov	r0, r3
    db2a:	f7fe ebe8 	blx	c2fc <_init+0x374>
    db2e:	f107 0318 	add.w	r3, r7, #24
    db32:	4618      	mov	r0, r3
    db34:	f7fe ebc4 	blx	c2c0 <_init+0x338>
    db38:	e7ff      	b.n	db3a <main+0x886>
    db3a:	f107 0370 	add.w	r3, r7, #112	; 0x70
    db3e:	4618      	mov	r0, r3
    db40:	f7fe ebdc 	blx	c2fc <_init+0x374>
    db44:	e07e      	b.n	dc44 <main+0x990>
    db46:	f107 0324 	add.w	r3, r7, #36	; 0x24
    db4a:	4618      	mov	r0, r3
    db4c:	f7fe ebb8 	blx	c2c0 <_init+0x338>
    db50:	e7ff      	b.n	db52 <main+0x89e>
    db52:	f107 037c 	add.w	r3, r7, #124	; 0x7c
    db56:	4618      	mov	r0, r3
    db58:	f7fe ebd0 	blx	c2fc <_init+0x374>
    db5c:	f107 0320 	add.w	r3, r7, #32
    db60:	4618      	mov	r0, r3
    db62:	f7fe ebae 	blx	c2c0 <_init+0x338>
    db66:	e7ff      	b.n	db68 <main+0x8b4>
    db68:	f107 0370 	add.w	r3, r7, #112	; 0x70
    db6c:	4618      	mov	r0, r3
    db6e:	f7fe ebc6 	blx	c2fc <_init+0x374>
    db72:	e067      	b.n	dc44 <main+0x990>
    db74:	f107 032c 	add.w	r3, r7, #44	; 0x2c
    db78:	4618      	mov	r0, r3
    db7a:	f7fe eba2 	blx	c2c0 <_init+0x338>
    db7e:	e7ff      	b.n	db80 <main+0x8cc>
    db80:	f107 037c 	add.w	r3, r7, #124	; 0x7c
    db84:	4618      	mov	r0, r3
    db86:	f7fe ebba 	blx	c2fc <_init+0x374>
    db8a:	f107 0328 	add.w	r3, r7, #40	; 0x28
    db8e:	4618      	mov	r0, r3
    db90:	f7fe eb96 	blx	c2c0 <_init+0x338>
    db94:	e7ff      	b.n	db96 <main+0x8e2>
    db96:	f107 0370 	add.w	r3, r7, #112	; 0x70
    db9a:	4618      	mov	r0, r3
    db9c:	f7fe ebae 	blx	c2fc <_init+0x374>
    dba0:	e050      	b.n	dc44 <main+0x990>
    dba2:	f107 0334 	add.w	r3, r7, #52	; 0x34
    dba6:	4618      	mov	r0, r3
    dba8:	f7fe eb8a 	blx	c2c0 <_init+0x338>
    dbac:	e7ff      	b.n	dbae <main+0x8fa>
    dbae:	f107 037c 	add.w	r3, r7, #124	; 0x7c
    dbb2:	4618      	mov	r0, r3
    dbb4:	f7fe eba2 	blx	c2fc <_init+0x374>
    dbb8:	f107 0330 	add.w	r3, r7, #48	; 0x30
    dbbc:	4618      	mov	r0, r3
    dbbe:	f7fe eb80 	blx	c2c0 <_init+0x338>
    dbc2:	e7ff      	b.n	dbc4 <main+0x910>
    dbc4:	f107 0370 	add.w	r3, r7, #112	; 0x70
    dbc8:	4618      	mov	r0, r3
    dbca:	f7fe eb98 	blx	c2fc <_init+0x374>
    dbce:	e039      	b.n	dc44 <main+0x990>
    dbd0:	f107 033c 	add.w	r3, r7, #60	; 0x3c
    dbd4:	4618      	mov	r0, r3
    dbd6:	f7fe eb74 	blx	c2c0 <_init+0x338>
    dbda:	e7ff      	b.n	dbdc <main+0x928>
    dbdc:	f107 037c 	add.w	r3, r7, #124	; 0x7c
    dbe0:	4618      	mov	r0, r3
    dbe2:	f7fe eb8c 	blx	c2fc <_init+0x374>
    dbe6:	f107 0338 	add.w	r3, r7, #56	; 0x38
    dbea:	4618      	mov	r0, r3
    dbec:	f7fe eb68 	blx	c2c0 <_init+0x338>
    dbf0:	e7ff      	b.n	dbf2 <main+0x93e>
    dbf2:	f107 0370 	add.w	r3, r7, #112	; 0x70
    dbf6:	4618      	mov	r0, r3
    dbf8:	f7fe eb80 	blx	c2fc <_init+0x374>
    dbfc:	e022      	b.n	dc44 <main+0x990>
    dbfe:	f107 0370 	add.w	r3, r7, #112	; 0x70
    dc02:	4618      	mov	r0, r3
    dc04:	f7fe eb5c 	blx	c2c0 <_init+0x338>
    dc08:	e7ff      	b.n	dc0a <main+0x956>
    dc0a:	f107 037c 	add.w	r3, r7, #124	; 0x7c
    dc0e:	4618      	mov	r0, r3
    dc10:	f7fe eb74 	blx	c2fc <_init+0x374>
    dc14:	f107 0340 	add.w	r3, r7, #64	; 0x40
    dc18:	4618      	mov	r0, r3
    dc1a:	f7fe eb52 	blx	c2c0 <_init+0x338>
    dc1e:	e7ff      	b.n	dc20 <main+0x96c>
    dc20:	f107 033c 	add.w	r3, r7, #60	; 0x3c
    dc24:	4618      	mov	r0, r3
    dc26:	f7fe eb6a 	blx	c2fc <_init+0x374>
    dc2a:	e00b      	b.n	dc44 <main+0x990>
    dc2c:	f107 037c 	add.w	r3, r7, #124	; 0x7c
    dc30:	4618      	mov	r0, r3
    dc32:	f7fe ea98 	blx	c164 <_init+0x1dc>
    dc36:	e7ff      	b.n	dc38 <main+0x984>
    dc38:	f107 0370 	add.w	r3, r7, #112	; 0x70
    dc3c:	4618      	mov	r0, r3
    dc3e:	f000 fc01 	bl	e444 <_ZNSt6vectorIN2cv3VecIfLi3EEESaIS2_EED1Ev>
    dc42:	e7ff      	b.n	dc44 <main+0x990>
    dc44:	f107 0364 	add.w	r3, r7, #100	; 0x64
    dc48:	4618      	mov	r0, r3
    dc4a:	f7fe ea8c 	blx	c164 <_init+0x1dc>
    dc4e:	f7fe eaf6 	blx	c23c <_init+0x2b4>
    dc52:	f7fe e9f8 	blx	c044 <_init+0xbc>
    dc56:	f507 7788 	add.w	r7, r7, #272	; 0x110
    dc5a:	46bd      	mov	sp, r7
    dc5c:	bdb0      	pop	{r4, r5, r7, pc}
    dc5e:	bf00      	nop

0000dc60 <_Z41__static_initialization_and_destruction_0ii>:
    dc60:	b580      	push	{r7, lr}
    dc62:	b082      	sub	sp, #8
    dc64:	af00      	add	r7, sp, #0
    dc66:	6078      	str	r0, [r7, #4]
    dc68:	6039      	str	r1, [r7, #0]
    dc6a:	687b      	ldr	r3, [r7, #4]
    dc6c:	2b01      	cmp	r3, #1
    dc6e:	d148      	bne.n	dd02 <_Z41__static_initialization_and_destruction_0ii+0xa2>
    dc70:	683a      	ldr	r2, [r7, #0]
    dc72:	f64f 73ff 	movw	r3, #65535	; 0xffff
    dc76:	429a      	cmp	r2, r3
    dc78:	d143      	bne.n	dd02 <_Z41__static_initialization_and_destruction_0ii+0xa2>
    dc7a:	f248 3060 	movw	r0, #33632	; 0x8360
    dc7e:	f2c0 0001 	movt	r0, #1
    dc82:	f7fe eaf4 	blx	c26c <_init+0x2e4>
    dc86:	f248 3060 	movw	r0, #33632	; 0x8360
    dc8a:	f2c0 0001 	movt	r0, #1
    dc8e:	f24c 1104 	movw	r1, #49412	; 0xc104
    dc92:	f2c0 0100 	movt	r1, #0
    dc96:	f248 1234 	movw	r2, #33076	; 0x8134
    dc9a:	f2c0 0201 	movt	r2, #1
    dc9e:	f7fe ea68 	blx	c170 <_init+0x1e8>
    dca2:	f248 1340 	movw	r3, #33088	; 0x8140
    dca6:	f2c0 0301 	movt	r3, #1
    dcaa:	681a      	ldr	r2, [r3, #0]
    dcac:	f246 6367 	movw	r3, #26215	; 0x6667
    dcb0:	f2c6 6366 	movt	r3, #26214	; 0x6666
    dcb4:	fb83 1302 	smull	r1, r3, r3, r2
    dcb8:	1099      	asrs	r1, r3, #2
    dcba:	17d3      	asrs	r3, r2, #31
    dcbc:	1acb      	subs	r3, r1, r3
    dcbe:	ee06 3a90 	vmov	s13, r3
    dcc2:	eeb8 7be6 	vcvt.f64.s32	d7, s13
    dcc6:	f248 3350 	movw	r3, #33616	; 0x8350
    dcca:	f2c0 0301 	movt	r3, #1
    dcce:	ed83 7b00 	vstr	d7, [r3]
    dcd2:	f248 1344 	movw	r3, #33092	; 0x8144
    dcd6:	f2c0 0301 	movt	r3, #1
    dcda:	681a      	ldr	r2, [r3, #0]
    dcdc:	f246 6367 	movw	r3, #26215	; 0x6667
    dce0:	f2c6 6366 	movt	r3, #26214	; 0x6666
    dce4:	fb83 1302 	smull	r1, r3, r3, r2
    dce8:	1099      	asrs	r1, r3, #2
    dcea:	17d3      	asrs	r3, r2, #31
    dcec:	1acb      	subs	r3, r1, r3
    dcee:	ee06 3a90 	vmov	s13, r3
    dcf2:	eeb8 7be6 	vcvt.f64.s32	d7, s13
    dcf6:	f248 3358 	movw	r3, #33624	; 0x8358
    dcfa:	f2c0 0301 	movt	r3, #1
    dcfe:	ed83 7b00 	vstr	d7, [r3]
    dd02:	3708      	adds	r7, #8
    dd04:	46bd      	mov	sp, r7
    dd06:	bd80      	pop	{r7, pc}

0000dd08 <_GLOBAL__sub_I_erodeSize>:
    dd08:	b580      	push	{r7, lr}
    dd0a:	af00      	add	r7, sp, #0
    dd0c:	2001      	movs	r0, #1
    dd0e:	f64f 71ff 	movw	r1, #65535	; 0xffff
    dd12:	f7ff ffa5 	bl	dc60 <_Z41__static_initialization_and_destruction_0ii>
    dd16:	bd80      	pop	{r7, pc}

0000dd18 <_Z7cvRoundd>:
    dd18:	b580      	push	{r7, lr}
    dd1a:	b082      	sub	sp, #8
    dd1c:	af00      	add	r7, sp, #0
    dd1e:	ed87 0b00 	vstr	d0, [r7]
    dd22:	ed97 0b00 	vldr	d0, [r7]
    dd26:	f7fe e9b2 	blx	c08c <_init+0x104>
    dd2a:	4603      	mov	r3, r0
    dd2c:	4618      	mov	r0, r3
    dd2e:	3708      	adds	r7, #8
    dd30:	46bd      	mov	sp, r7
    dd32:	bd80      	pop	{r7, pc}

0000dd34 <_ZStanSt13_Ios_FmtflagsS_>:
    dd34:	b480      	push	{r7}
    dd36:	b083      	sub	sp, #12
    dd38:	af00      	add	r7, sp, #0
    dd3a:	6078      	str	r0, [r7, #4]
    dd3c:	6039      	str	r1, [r7, #0]
    dd3e:	687a      	ldr	r2, [r7, #4]
    dd40:	683b      	ldr	r3, [r7, #0]
    dd42:	4013      	ands	r3, r2
    dd44:	4618      	mov	r0, r3
    dd46:	370c      	adds	r7, #12
    dd48:	46bd      	mov	sp, r7
    dd4a:	f85d 7b04 	ldr.w	r7, [sp], #4
    dd4e:	4770      	bx	lr

0000dd50 <_ZStorSt13_Ios_FmtflagsS_>:
    dd50:	b480      	push	{r7}
    dd52:	b083      	sub	sp, #12
    dd54:	af00      	add	r7, sp, #0
    dd56:	6078      	str	r0, [r7, #4]
    dd58:	6039      	str	r1, [r7, #0]
    dd5a:	687a      	ldr	r2, [r7, #4]
    dd5c:	683b      	ldr	r3, [r7, #0]
    dd5e:	4313      	orrs	r3, r2
    dd60:	4618      	mov	r0, r3
    dd62:	370c      	adds	r7, #12
    dd64:	46bd      	mov	sp, r7
    dd66:	f85d 7b04 	ldr.w	r7, [sp], #4
    dd6a:	4770      	bx	lr

0000dd6c <_ZStcoSt13_Ios_Fmtflags>:
    dd6c:	b480      	push	{r7}
    dd6e:	b083      	sub	sp, #12
    dd70:	af00      	add	r7, sp, #0
    dd72:	6078      	str	r0, [r7, #4]
    dd74:	687b      	ldr	r3, [r7, #4]
    dd76:	43db      	mvns	r3, r3
    dd78:	4618      	mov	r0, r3
    dd7a:	370c      	adds	r7, #12
    dd7c:	46bd      	mov	sp, r7
    dd7e:	f85d 7b04 	ldr.w	r7, [sp], #4
    dd82:	4770      	bx	lr

0000dd84 <_ZStoRRSt13_Ios_FmtflagsS_>:
    dd84:	b580      	push	{r7, lr}
    dd86:	b082      	sub	sp, #8
    dd88:	af00      	add	r7, sp, #0
    dd8a:	6078      	str	r0, [r7, #4]
    dd8c:	6039      	str	r1, [r7, #0]
    dd8e:	687b      	ldr	r3, [r7, #4]
    dd90:	681b      	ldr	r3, [r3, #0]
    dd92:	4618      	mov	r0, r3
    dd94:	6839      	ldr	r1, [r7, #0]
    dd96:	f7ff ffdb 	bl	dd50 <_ZStorSt13_Ios_FmtflagsS_>
    dd9a:	4602      	mov	r2, r0
    dd9c:	687b      	ldr	r3, [r7, #4]
    dd9e:	601a      	str	r2, [r3, #0]
    dda0:	687b      	ldr	r3, [r7, #4]
    dda2:	4618      	mov	r0, r3
    dda4:	3708      	adds	r7, #8
    dda6:	46bd      	mov	sp, r7
    dda8:	bd80      	pop	{r7, pc}
    ddaa:	bf00      	nop

0000ddac <_ZStaNRSt13_Ios_FmtflagsS_>:
    ddac:	b580      	push	{r7, lr}
    ddae:	b082      	sub	sp, #8
    ddb0:	af00      	add	r7, sp, #0
    ddb2:	6078      	str	r0, [r7, #4]
    ddb4:	6039      	str	r1, [r7, #0]
    ddb6:	687b      	ldr	r3, [r7, #4]
    ddb8:	681b      	ldr	r3, [r3, #0]
    ddba:	4618      	mov	r0, r3
    ddbc:	6839      	ldr	r1, [r7, #0]
    ddbe:	f7ff ffb9 	bl	dd34 <_ZStanSt13_Ios_FmtflagsS_>
    ddc2:	4602      	mov	r2, r0
    ddc4:	687b      	ldr	r3, [r7, #4]
    ddc6:	601a      	str	r2, [r3, #0]
    ddc8:	687b      	ldr	r3, [r7, #4]
    ddca:	4618      	mov	r0, r3
    ddcc:	3708      	adds	r7, #8
    ddce:	46bd      	mov	sp, r7
    ddd0:	bd80      	pop	{r7, pc}
    ddd2:	bf00      	nop

0000ddd4 <_ZNSt8ios_base4setfESt13_Ios_FmtflagsS0_>:
    ddd4:	b590      	push	{r4, r7, lr}
    ddd6:	b087      	sub	sp, #28
    ddd8:	af00      	add	r7, sp, #0
    ddda:	60f8      	str	r0, [r7, #12]
    dddc:	60b9      	str	r1, [r7, #8]
    ddde:	607a      	str	r2, [r7, #4]
    dde0:	68fb      	ldr	r3, [r7, #12]
    dde2:	68db      	ldr	r3, [r3, #12]
    dde4:	617b      	str	r3, [r7, #20]
    dde6:	68fb      	ldr	r3, [r7, #12]
    dde8:	f103 040c 	add.w	r4, r3, #12
    ddec:	6878      	ldr	r0, [r7, #4]
    ddee:	f7ff ffbd 	bl	dd6c <_ZStcoSt13_Ios_Fmtflags>
    ddf2:	4603      	mov	r3, r0
    ddf4:	4620      	mov	r0, r4
    ddf6:	4619      	mov	r1, r3
    ddf8:	f7ff ffd8 	bl	ddac <_ZStaNRSt13_Ios_FmtflagsS_>
    ddfc:	68fb      	ldr	r3, [r7, #12]
    ddfe:	f103 040c 	add.w	r4, r3, #12
    de02:	68b8      	ldr	r0, [r7, #8]
    de04:	6879      	ldr	r1, [r7, #4]
    de06:	f7ff ff95 	bl	dd34 <_ZStanSt13_Ios_FmtflagsS_>
    de0a:	4603      	mov	r3, r0
    de0c:	4620      	mov	r0, r4
    de0e:	4619      	mov	r1, r3
    de10:	f7ff ffb8 	bl	dd84 <_ZStoRRSt13_Ios_FmtflagsS_>
    de14:	697b      	ldr	r3, [r7, #20]
    de16:	4618      	mov	r0, r3
    de18:	371c      	adds	r7, #28
    de1a:	46bd      	mov	sp, r7
    de1c:	bd90      	pop	{r4, r7, pc}
    de1e:	bf00      	nop

0000de20 <_ZSt3hexRSt8ios_base>:
    de20:	b580      	push	{r7, lr}
    de22:	b082      	sub	sp, #8
    de24:	af00      	add	r7, sp, #0
    de26:	6078      	str	r0, [r7, #4]
    de28:	6878      	ldr	r0, [r7, #4]
    de2a:	2108      	movs	r1, #8
    de2c:	224a      	movs	r2, #74	; 0x4a
    de2e:	f7ff ffd1 	bl	ddd4 <_ZNSt8ios_base4setfESt13_Ios_FmtflagsS0_>
    de32:	687b      	ldr	r3, [r7, #4]
    de34:	4618      	mov	r0, r3
    de36:	3708      	adds	r7, #8
    de38:	46bd      	mov	sp, r7
    de3a:	bd80      	pop	{r7, pc}

0000de3c <_ZN2cv3Mat9initEmptyEv>:
    de3c:	b480      	push	{r7}
    de3e:	b083      	sub	sp, #12
    de40:	af00      	add	r7, sp, #0
    de42:	6078      	str	r0, [r7, #4]
    de44:	687a      	ldr	r2, [r7, #4]
    de46:	2300      	movs	r3, #0
    de48:	f2c4 23ff 	movt	r3, #17151	; 0x42ff
    de4c:	6013      	str	r3, [r2, #0]
    de4e:	687b      	ldr	r3, [r7, #4]
    de50:	2200      	movs	r2, #0
    de52:	60da      	str	r2, [r3, #12]
    de54:	687b      	ldr	r3, [r7, #4]
    de56:	68da      	ldr	r2, [r3, #12]
    de58:	687b      	ldr	r3, [r7, #4]
    de5a:	609a      	str	r2, [r3, #8]
    de5c:	687b      	ldr	r3, [r7, #4]
    de5e:	689a      	ldr	r2, [r3, #8]
    de60:	687b      	ldr	r3, [r7, #4]
    de62:	605a      	str	r2, [r3, #4]
    de64:	687b      	ldr	r3, [r7, #4]
    de66:	2200      	movs	r2, #0
    de68:	621a      	str	r2, [r3, #32]
    de6a:	687b      	ldr	r3, [r7, #4]
    de6c:	6a1a      	ldr	r2, [r3, #32]
    de6e:	687b      	ldr	r3, [r7, #4]
    de70:	61da      	str	r2, [r3, #28]
    de72:	687b      	ldr	r3, [r7, #4]
    de74:	69da      	ldr	r2, [r3, #28]
    de76:	687b      	ldr	r3, [r7, #4]
    de78:	619a      	str	r2, [r3, #24]
    de7a:	687b      	ldr	r3, [r7, #4]
    de7c:	699a      	ldr	r2, [r3, #24]
    de7e:	687b      	ldr	r3, [r7, #4]
    de80:	611a      	str	r2, [r3, #16]
    de82:	687b      	ldr	r3, [r7, #4]
    de84:	2200      	movs	r2, #0
    de86:	615a      	str	r2, [r3, #20]
    de88:	687b      	ldr	r3, [r7, #4]
    de8a:	2200      	movs	r2, #0
    de8c:	625a      	str	r2, [r3, #36]	; 0x24
    de8e:	370c      	adds	r7, #12
    de90:	46bd      	mov	sp, r7
    de92:	f85d 7b04 	ldr.w	r7, [sp], #4
    de96:	4770      	bx	lr

0000de98 <_ZN2cv3MatC1Ev>:
    de98:	b580      	push	{r7, lr}
    de9a:	b082      	sub	sp, #8
    de9c:	af00      	add	r7, sp, #0
    de9e:	6078      	str	r0, [r7, #4]
    dea0:	687b      	ldr	r3, [r7, #4]
    dea2:	f103 0228 	add.w	r2, r3, #40	; 0x28
    dea6:	687b      	ldr	r3, [r7, #4]
    dea8:	3308      	adds	r3, #8
    deaa:	4610      	mov	r0, r2
    deac:	4619      	mov	r1, r3
    deae:	f000 f8c9 	bl	e044 <_ZN2cv3Mat5MSizeC1EPi>
    deb2:	687b      	ldr	r3, [r7, #4]
    deb4:	332c      	adds	r3, #44	; 0x2c
    deb6:	4618      	mov	r0, r3
    deb8:	f000 f8d4 	bl	e064 <_ZN2cv3Mat5MStepC1Ev>
    debc:	6878      	ldr	r0, [r7, #4]
    debe:	f7ff ffbd 	bl	de3c <_ZN2cv3Mat9initEmptyEv>
    dec2:	687b      	ldr	r3, [r7, #4]
    dec4:	4618      	mov	r0, r3
    dec6:	3708      	adds	r7, #8
    dec8:	46bd      	mov	sp, r7
    deca:	bd80      	pop	{r7, pc}

0000decc <_ZN2cv3MatD1Ev>:
    decc:	b580      	push	{r7, lr}
    dece:	b082      	sub	sp, #8
    ded0:	af00      	add	r7, sp, #0
    ded2:	6078      	str	r0, [r7, #4]
    ded4:	6878      	ldr	r0, [r7, #4]
    ded6:	f000 f881 	bl	dfdc <_ZN2cv3Mat7releaseEv>
    deda:	687b      	ldr	r3, [r7, #4]
    dedc:	6ada      	ldr	r2, [r3, #44]	; 0x2c
    dede:	687b      	ldr	r3, [r7, #4]
    dee0:	3330      	adds	r3, #48	; 0x30
    dee2:	429a      	cmp	r2, r3
    dee4:	d004      	beq.n	def0 <_ZN2cv3MatD1Ev+0x24>
    dee6:	687b      	ldr	r3, [r7, #4]
    dee8:	6adb      	ldr	r3, [r3, #44]	; 0x2c
    deea:	4618      	mov	r0, r3
    deec:	f7fe e98e 	blx	c20c <_init+0x284>
    def0:	687b      	ldr	r3, [r7, #4]
    def2:	4618      	mov	r0, r3
    def4:	3708      	adds	r7, #8
    def6:	46bd      	mov	sp, r7
    def8:	bd80      	pop	{r7, pc}
    defa:	bf00      	nop

0000defc <_ZN2cv3MataSERKS0_>:
    defc:	b590      	push	{r4, r7, lr}
    defe:	b083      	sub	sp, #12
    df00:	af00      	add	r7, sp, #0
    df02:	6078      	str	r0, [r7, #4]
    df04:	6039      	str	r1, [r7, #0]
    df06:	687a      	ldr	r2, [r7, #4]
    df08:	683b      	ldr	r3, [r7, #0]
    df0a:	429a      	cmp	r2, r3
    df0c:	d061      	beq.n	dfd2 <_ZN2cv3MataSERKS0_+0xd6>
    df0e:	683b      	ldr	r3, [r7, #0]
    df10:	695b      	ldr	r3, [r3, #20]
    df12:	2b00      	cmp	r3, #0
    df14:	d005      	beq.n	df22 <_ZN2cv3MataSERKS0_+0x26>
    df16:	683b      	ldr	r3, [r7, #0]
    df18:	695b      	ldr	r3, [r3, #20]
    df1a:	4618      	mov	r0, r3
    df1c:	2101      	movs	r1, #1
    df1e:	f7fe fa63 	bl	c3e8 <_ZN9__gnu_cxxL18__exchange_and_addEPVii>
    df22:	6878      	ldr	r0, [r7, #4]
    df24:	f000 f85a 	bl	dfdc <_ZN2cv3Mat7releaseEv>
    df28:	683b      	ldr	r3, [r7, #0]
    df2a:	681a      	ldr	r2, [r3, #0]
    df2c:	687b      	ldr	r3, [r7, #4]
    df2e:	601a      	str	r2, [r3, #0]
    df30:	687b      	ldr	r3, [r7, #4]
    df32:	685b      	ldr	r3, [r3, #4]
    df34:	2b02      	cmp	r3, #2
    df36:	dc30      	bgt.n	df9a <_ZN2cv3MataSERKS0_+0x9e>
    df38:	683b      	ldr	r3, [r7, #0]
    df3a:	685b      	ldr	r3, [r3, #4]
    df3c:	2b02      	cmp	r3, #2
    df3e:	dc2c      	bgt.n	df9a <_ZN2cv3MataSERKS0_+0x9e>
    df40:	683b      	ldr	r3, [r7, #0]
    df42:	685a      	ldr	r2, [r3, #4]
    df44:	687b      	ldr	r3, [r7, #4]
    df46:	605a      	str	r2, [r3, #4]
    df48:	683b      	ldr	r3, [r7, #0]
    df4a:	689a      	ldr	r2, [r3, #8]
    df4c:	687b      	ldr	r3, [r7, #4]
    df4e:	609a      	str	r2, [r3, #8]
    df50:	683b      	ldr	r3, [r7, #0]
    df52:	68da      	ldr	r2, [r3, #12]
    df54:	687b      	ldr	r3, [r7, #4]
    df56:	60da      	str	r2, [r3, #12]
    df58:	687b      	ldr	r3, [r7, #4]
    df5a:	332c      	adds	r3, #44	; 0x2c
    df5c:	4618      	mov	r0, r3
    df5e:	2100      	movs	r1, #0
    df60:	f000 f8a8 	bl	e0b4 <_ZN2cv3Mat5MStepixEi>
    df64:	4604      	mov	r4, r0
    df66:	683b      	ldr	r3, [r7, #0]
    df68:	332c      	adds	r3, #44	; 0x2c
    df6a:	4618      	mov	r0, r3
    df6c:	2100      	movs	r1, #0
    df6e:	f000 f891 	bl	e094 <_ZNK2cv3Mat5MStepixEi>
    df72:	4603      	mov	r3, r0
    df74:	681b      	ldr	r3, [r3, #0]
    df76:	6023      	str	r3, [r4, #0]
    df78:	687b      	ldr	r3, [r7, #4]
    df7a:	332c      	adds	r3, #44	; 0x2c
    df7c:	4618      	mov	r0, r3
    df7e:	2101      	movs	r1, #1
    df80:	f000 f898 	bl	e0b4 <_ZN2cv3Mat5MStepixEi>
    df84:	4604      	mov	r4, r0
    df86:	683b      	ldr	r3, [r7, #0]
    df88:	332c      	adds	r3, #44	; 0x2c
    df8a:	4618      	mov	r0, r3
    df8c:	2101      	movs	r1, #1
    df8e:	f000 f881 	bl	e094 <_ZNK2cv3Mat5MStepixEi>
    df92:	4603      	mov	r3, r0
    df94:	681b      	ldr	r3, [r3, #0]
    df96:	6023      	str	r3, [r4, #0]
    df98:	e003      	b.n	dfa2 <_ZN2cv3MataSERKS0_+0xa6>
    df9a:	6878      	ldr	r0, [r7, #4]
    df9c:	6839      	ldr	r1, [r7, #0]
    df9e:	f7fe e80a 	blx	bfb4 <_init+0x2c>
    dfa2:	683b      	ldr	r3, [r7, #0]
    dfa4:	691a      	ldr	r2, [r3, #16]
    dfa6:	687b      	ldr	r3, [r7, #4]
    dfa8:	611a      	str	r2, [r3, #16]
    dfaa:	683b      	ldr	r3, [r7, #0]
    dfac:	699a      	ldr	r2, [r3, #24]
    dfae:	687b      	ldr	r3, [r7, #4]
    dfb0:	619a      	str	r2, [r3, #24]
    dfb2:	683b      	ldr	r3, [r7, #0]
    dfb4:	69da      	ldr	r2, [r3, #28]
    dfb6:	687b      	ldr	r3, [r7, #4]
    dfb8:	61da      	str	r2, [r3, #28]
    dfba:	683b      	ldr	r3, [r7, #0]
    dfbc:	6a1a      	ldr	r2, [r3, #32]
    dfbe:	687b      	ldr	r3, [r7, #4]
    dfc0:	621a      	str	r2, [r3, #32]
    dfc2:	683b      	ldr	r3, [r7, #0]
    dfc4:	695a      	ldr	r2, [r3, #20]
    dfc6:	687b      	ldr	r3, [r7, #4]
    dfc8:	615a      	str	r2, [r3, #20]
    dfca:	683b      	ldr	r3, [r7, #0]
    dfcc:	6a5a      	ldr	r2, [r3, #36]	; 0x24
    dfce:	687b      	ldr	r3, [r7, #4]
    dfd0:	625a      	str	r2, [r3, #36]	; 0x24
    dfd2:	687b      	ldr	r3, [r7, #4]
    dfd4:	4618      	mov	r0, r3
    dfd6:	370c      	adds	r7, #12
    dfd8:	46bd      	mov	sp, r7
    dfda:	bd90      	pop	{r4, r7, pc}

0000dfdc <_ZN2cv3Mat7releaseEv>:
    dfdc:	b580      	push	{r7, lr}
    dfde:	b082      	sub	sp, #8
    dfe0:	af00      	add	r7, sp, #0
    dfe2:	6078      	str	r0, [r7, #4]
    dfe4:	687b      	ldr	r3, [r7, #4]
    dfe6:	695b      	ldr	r3, [r3, #20]
    dfe8:	2b00      	cmp	r3, #0
    dfea:	d00b      	beq.n	e004 <_ZN2cv3Mat7releaseEv+0x28>
    dfec:	687b      	ldr	r3, [r7, #4]
    dfee:	695b      	ldr	r3, [r3, #20]
    dff0:	4618      	mov	r0, r3
    dff2:	f04f 31ff 	mov.w	r1, #4294967295
    dff6:	f7fe f9f7 	bl	c3e8 <_ZN9__gnu_cxxL18__exchange_and_addEPVii>
    dffa:	4603      	mov	r3, r0
    dffc:	2b01      	cmp	r3, #1
    dffe:	d101      	bne.n	e004 <_ZN2cv3Mat7releaseEv+0x28>
    e000:	2301      	movs	r3, #1
    e002:	e000      	b.n	e006 <_ZN2cv3Mat7releaseEv+0x2a>
    e004:	2300      	movs	r3, #0
    e006:	2b00      	cmp	r3, #0
    e008:	d002      	beq.n	e010 <_ZN2cv3Mat7releaseEv+0x34>
    e00a:	6878      	ldr	r0, [r7, #4]
    e00c:	f7fe e832 	blx	c074 <_init+0xec>
    e010:	687b      	ldr	r3, [r7, #4]
    e012:	2200      	movs	r2, #0
    e014:	621a      	str	r2, [r3, #32]
    e016:	687b      	ldr	r3, [r7, #4]
    e018:	6a1a      	ldr	r2, [r3, #32]
    e01a:	687b      	ldr	r3, [r7, #4]
    e01c:	61da      	str	r2, [r3, #28]
    e01e:	687b      	ldr	r3, [r7, #4]
    e020:	69da      	ldr	r2, [r3, #28]
    e022:	687b      	ldr	r3, [r7, #4]
    e024:	619a      	str	r2, [r3, #24]
    e026:	687b      	ldr	r3, [r7, #4]
    e028:	699a      	ldr	r2, [r3, #24]
    e02a:	687b      	ldr	r3, [r7, #4]
    e02c:	611a      	str	r2, [r3, #16]
    e02e:	687b      	ldr	r3, [r7, #4]
    e030:	6a9b      	ldr	r3, [r3, #40]	; 0x28
    e032:	2200      	movs	r2, #0
    e034:	601a      	str	r2, [r3, #0]
    e036:	687b      	ldr	r3, [r7, #4]
    e038:	2200      	movs	r2, #0
    e03a:	615a      	str	r2, [r3, #20]
    e03c:	3708      	adds	r7, #8
    e03e:	46bd      	mov	sp, r7
    e040:	bd80      	pop	{r7, pc}
    e042:	bf00      	nop

0000e044 <_ZN2cv3Mat5MSizeC1EPi>:
    e044:	b480      	push	{r7}
    e046:	b083      	sub	sp, #12
    e048:	af00      	add	r7, sp, #0
    e04a:	6078      	str	r0, [r7, #4]
    e04c:	6039      	str	r1, [r7, #0]
    e04e:	687b      	ldr	r3, [r7, #4]
    e050:	683a      	ldr	r2, [r7, #0]
    e052:	601a      	str	r2, [r3, #0]
    e054:	687b      	ldr	r3, [r7, #4]
    e056:	4618      	mov	r0, r3
    e058:	370c      	adds	r7, #12
    e05a:	46bd      	mov	sp, r7
    e05c:	f85d 7b04 	ldr.w	r7, [sp], #4
    e060:	4770      	bx	lr
    e062:	bf00      	nop

0000e064 <_ZN2cv3Mat5MStepC1Ev>:
    e064:	b480      	push	{r7}
    e066:	b083      	sub	sp, #12
    e068:	af00      	add	r7, sp, #0
    e06a:	6078      	str	r0, [r7, #4]
    e06c:	687b      	ldr	r3, [r7, #4]
    e06e:	1d1a      	adds	r2, r3, #4
    e070:	687b      	ldr	r3, [r7, #4]
    e072:	601a      	str	r2, [r3, #0]
    e074:	687b      	ldr	r3, [r7, #4]
    e076:	681a      	ldr	r2, [r3, #0]
    e078:	687b      	ldr	r3, [r7, #4]
    e07a:	681b      	ldr	r3, [r3, #0]
    e07c:	3304      	adds	r3, #4
    e07e:	2100      	movs	r1, #0
    e080:	6019      	str	r1, [r3, #0]
    e082:	681b      	ldr	r3, [r3, #0]
    e084:	6013      	str	r3, [r2, #0]
    e086:	687b      	ldr	r3, [r7, #4]
    e088:	4618      	mov	r0, r3
    e08a:	370c      	adds	r7, #12
    e08c:	46bd      	mov	sp, r7
    e08e:	f85d 7b04 	ldr.w	r7, [sp], #4
    e092:	4770      	bx	lr

0000e094 <_ZNK2cv3Mat5MStepixEi>:
    e094:	b480      	push	{r7}
    e096:	b083      	sub	sp, #12
    e098:	af00      	add	r7, sp, #0
    e09a:	6078      	str	r0, [r7, #4]
    e09c:	6039      	str	r1, [r7, #0]
    e09e:	687b      	ldr	r3, [r7, #4]
    e0a0:	681a      	ldr	r2, [r3, #0]
    e0a2:	683b      	ldr	r3, [r7, #0]
    e0a4:	009b      	lsls	r3, r3, #2
    e0a6:	4413      	add	r3, r2
    e0a8:	4618      	mov	r0, r3
    e0aa:	370c      	adds	r7, #12
    e0ac:	46bd      	mov	sp, r7
    e0ae:	f85d 7b04 	ldr.w	r7, [sp], #4
    e0b2:	4770      	bx	lr

0000e0b4 <_ZN2cv3Mat5MStepixEi>:
    e0b4:	b480      	push	{r7}
    e0b6:	b083      	sub	sp, #12
    e0b8:	af00      	add	r7, sp, #0
    e0ba:	6078      	str	r0, [r7, #4]
    e0bc:	6039      	str	r1, [r7, #0]
    e0be:	687b      	ldr	r3, [r7, #4]
    e0c0:	681a      	ldr	r2, [r3, #0]
    e0c2:	683b      	ldr	r3, [r7, #0]
    e0c4:	009b      	lsls	r3, r3, #2
    e0c6:	4413      	add	r3, r2
    e0c8:	4618      	mov	r0, r3
    e0ca:	370c      	adds	r7, #12
    e0cc:	46bd      	mov	sp, r7
    e0ce:	f85d 7b04 	ldr.w	r7, [sp], #4
    e0d2:	4770      	bx	lr

0000e0d4 <_ZN2cv3gpu6GpuMatC1Ev>:
    e0d4:	b480      	push	{r7}
    e0d6:	b083      	sub	sp, #12
    e0d8:	af00      	add	r7, sp, #0
    e0da:	6078      	str	r0, [r7, #4]
    e0dc:	687b      	ldr	r3, [r7, #4]
    e0de:	2200      	movs	r2, #0
    e0e0:	601a      	str	r2, [r3, #0]
    e0e2:	687b      	ldr	r3, [r7, #4]
    e0e4:	2200      	movs	r2, #0
    e0e6:	605a      	str	r2, [r3, #4]
    e0e8:	687b      	ldr	r3, [r7, #4]
    e0ea:	2200      	movs	r2, #0
    e0ec:	609a      	str	r2, [r3, #8]
    e0ee:	687b      	ldr	r3, [r7, #4]
    e0f0:	2200      	movs	r2, #0
    e0f2:	60da      	str	r2, [r3, #12]
    e0f4:	687b      	ldr	r3, [r7, #4]
    e0f6:	2200      	movs	r2, #0
    e0f8:	611a      	str	r2, [r3, #16]
    e0fa:	687b      	ldr	r3, [r7, #4]
    e0fc:	2200      	movs	r2, #0
    e0fe:	615a      	str	r2, [r3, #20]
    e100:	687b      	ldr	r3, [r7, #4]
    e102:	2200      	movs	r2, #0
    e104:	619a      	str	r2, [r3, #24]
    e106:	687b      	ldr	r3, [r7, #4]
    e108:	2200      	movs	r2, #0
    e10a:	61da      	str	r2, [r3, #28]
    e10c:	687b      	ldr	r3, [r7, #4]
    e10e:	4618      	mov	r0, r3
    e110:	370c      	adds	r7, #12
    e112:	46bd      	mov	sp, r7
    e114:	f85d 7b04 	ldr.w	r7, [sp], #4
    e118:	4770      	bx	lr
    e11a:	bf00      	nop

0000e11c <_ZN2cv3gpu6GpuMatD1Ev>:
    e11c:	b580      	push	{r7, lr}
    e11e:	b082      	sub	sp, #8
    e120:	af00      	add	r7, sp, #0
    e122:	6078      	str	r0, [r7, #4]
    e124:	6878      	ldr	r0, [r7, #4]
    e126:	f7fe e8d8 	blx	c2d8 <_init+0x350>
    e12a:	687b      	ldr	r3, [r7, #4]
    e12c:	4618      	mov	r0, r3
    e12e:	3708      	adds	r7, #8
    e130:	46bd      	mov	sp, r7
    e132:	bd80      	pop	{r7, pc}

0000e134 <_ZN2cv12VideoCaptureC1ERKS0_>:
    e134:	b580      	push	{r7, lr}
    e136:	b082      	sub	sp, #8
    e138:	af00      	add	r7, sp, #0
    e13a:	6078      	str	r0, [r7, #4]
    e13c:	6039      	str	r1, [r7, #0]
    e13e:	687b      	ldr	r3, [r7, #4]
    e140:	4a07      	ldr	r2, [pc, #28]	; (e160 <_ZN2cv12VideoCaptureC1ERKS0_+0x2c>)
    e142:	601a      	str	r2, [r3, #0]
    e144:	687b      	ldr	r3, [r7, #4]
    e146:	1d1a      	adds	r2, r3, #4
    e148:	683b      	ldr	r3, [r7, #0]
    e14a:	3304      	adds	r3, #4
    e14c:	4610      	mov	r0, r2
    e14e:	4619      	mov	r1, r3
    e150:	f000 f99a 	bl	e488 <_ZN2cv3PtrI9CvCaptureEC1ERKS2_>
    e154:	687b      	ldr	r3, [r7, #4]
    e156:	4618      	mov	r0, r3
    e158:	3708      	adds	r7, #8
    e15a:	46bd      	mov	sp, r7
    e15c:	bd80      	pop	{r7, pc}
    e15e:	bf00      	nop
    e160:	000181f0 	.word	0x000181f0

0000e164 <_ZN2cv6Point_IiEC1ERKS1_>:
    e164:	b480      	push	{r7}
    e166:	b083      	sub	sp, #12
    e168:	af00      	add	r7, sp, #0
    e16a:	6078      	str	r0, [r7, #4]
    e16c:	6039      	str	r1, [r7, #0]
    e16e:	683b      	ldr	r3, [r7, #0]
    e170:	681a      	ldr	r2, [r3, #0]
    e172:	687b      	ldr	r3, [r7, #4]
    e174:	601a      	str	r2, [r3, #0]
    e176:	683b      	ldr	r3, [r7, #0]
    e178:	685a      	ldr	r2, [r3, #4]
    e17a:	687b      	ldr	r3, [r7, #4]
    e17c:	605a      	str	r2, [r3, #4]
    e17e:	687b      	ldr	r3, [r7, #4]
    e180:	4618      	mov	r0, r3
    e182:	370c      	adds	r7, #12
    e184:	46bd      	mov	sp, r7
    e186:	f85d 7b04 	ldr.w	r7, [sp], #4
    e18a:	4770      	bx	lr

0000e18c <_ZN2cv6Point_IiEC1Eii>:
    e18c:	b480      	push	{r7}
    e18e:	b085      	sub	sp, #20
    e190:	af00      	add	r7, sp, #0
    e192:	60f8      	str	r0, [r7, #12]
    e194:	60b9      	str	r1, [r7, #8]
    e196:	607a      	str	r2, [r7, #4]
    e198:	68fb      	ldr	r3, [r7, #12]
    e19a:	68ba      	ldr	r2, [r7, #8]
    e19c:	601a      	str	r2, [r3, #0]
    e19e:	68fb      	ldr	r3, [r7, #12]
    e1a0:	687a      	ldr	r2, [r7, #4]
    e1a2:	605a      	str	r2, [r3, #4]
    e1a4:	68fb      	ldr	r3, [r7, #12]
    e1a6:	4618      	mov	r0, r3
    e1a8:	3714      	adds	r7, #20
    e1aa:	46bd      	mov	sp, r7
    e1ac:	f85d 7b04 	ldr.w	r7, [sp], #4
    e1b0:	4770      	bx	lr
    e1b2:	bf00      	nop

0000e1b4 <_ZN2cv5Size_IiEC1Eii>:
    e1b4:	b480      	push	{r7}
    e1b6:	b085      	sub	sp, #20
    e1b8:	af00      	add	r7, sp, #0
    e1ba:	60f8      	str	r0, [r7, #12]
    e1bc:	60b9      	str	r1, [r7, #8]
    e1be:	607a      	str	r2, [r7, #4]
    e1c0:	68fb      	ldr	r3, [r7, #12]
    e1c2:	68ba      	ldr	r2, [r7, #8]
    e1c4:	601a      	str	r2, [r3, #0]
    e1c6:	68fb      	ldr	r3, [r7, #12]
    e1c8:	687a      	ldr	r2, [r7, #4]
    e1ca:	605a      	str	r2, [r3, #4]
    e1cc:	68fb      	ldr	r3, [r7, #12]
    e1ce:	4618      	mov	r0, r3
    e1d0:	3714      	adds	r7, #20
    e1d2:	46bd      	mov	sp, r7
    e1d4:	f85d 7b04 	ldr.w	r7, [sp], #4
    e1d8:	4770      	bx	lr
    e1da:	bf00      	nop

0000e1dc <_ZN2cv7Scalar_IdE3allEd>:
    e1dc:	b580      	push	{r7, lr}
    e1de:	b084      	sub	sp, #16
    e1e0:	af00      	add	r7, sp, #0
    e1e2:	60f8      	str	r0, [r7, #12]
    e1e4:	ed87 0b00 	vstr	d0, [r7]
    e1e8:	68f8      	ldr	r0, [r7, #12]
    e1ea:	ed97 0b00 	vldr	d0, [r7]
    e1ee:	ed97 1b00 	vldr	d1, [r7]
    e1f2:	ed97 2b00 	vldr	d2, [r7]
    e1f6:	ed97 3b00 	vldr	d3, [r7]
    e1fa:	f000 f8db 	bl	e3b4 <_ZN2cv7Scalar_IdEC1Edddd>
    e1fe:	68f8      	ldr	r0, [r7, #12]
    e200:	3710      	adds	r7, #16
    e202:	46bd      	mov	sp, r7
    e204:	bd80      	pop	{r7, pc}
    e206:	bf00      	nop

0000e208 <_ZN2cv5Size_IiEC1Ev>:
    e208:	b480      	push	{r7}
    e20a:	b083      	sub	sp, #12
    e20c:	af00      	add	r7, sp, #0
    e20e:	6078      	str	r0, [r7, #4]
    e210:	687b      	ldr	r3, [r7, #4]
    e212:	2200      	movs	r2, #0
    e214:	601a      	str	r2, [r3, #0]
    e216:	687b      	ldr	r3, [r7, #4]
    e218:	2200      	movs	r2, #0
    e21a:	605a      	str	r2, [r3, #4]
    e21c:	687b      	ldr	r3, [r7, #4]
    e21e:	4618      	mov	r0, r3
    e220:	370c      	adds	r7, #12
    e222:	46bd      	mov	sp, r7
    e224:	f85d 7b04 	ldr.w	r7, [sp], #4
    e228:	4770      	bx	lr
    e22a:	bf00      	nop

0000e22c <_ZNSt6vectorIN2cv3MatESaIS1_EEC1Ev>:
    e22c:	b580      	push	{r7, lr}
    e22e:	b082      	sub	sp, #8
    e230:	af00      	add	r7, sp, #0
    e232:	6078      	str	r0, [r7, #4]
    e234:	687b      	ldr	r3, [r7, #4]
    e236:	4618      	mov	r0, r3
    e238:	f000 f956 	bl	e4e8 <_ZNSt12_Vector_baseIN2cv3MatESaIS1_EEC1Ev>
    e23c:	687b      	ldr	r3, [r7, #4]
    e23e:	4618      	mov	r0, r3
    e240:	3708      	adds	r7, #8
    e242:	46bd      	mov	sp, r7
    e244:	bd80      	pop	{r7, pc}
    e246:	bf00      	nop

0000e248 <_ZNSt6vectorIN2cv3MatESaIS1_EED1Ev>:
    e248:	b5b0      	push	{r4, r5, r7, lr}
    e24a:	b082      	sub	sp, #8
    e24c:	af00      	add	r7, sp, #0
    e24e:	6078      	str	r0, [r7, #4]
    e250:	687b      	ldr	r3, [r7, #4]
    e252:	681d      	ldr	r5, [r3, #0]
    e254:	687b      	ldr	r3, [r7, #4]
    e256:	685c      	ldr	r4, [r3, #4]
    e258:	687b      	ldr	r3, [r7, #4]
    e25a:	4618      	mov	r0, r3
    e25c:	f000 f97a 	bl	e554 <_ZNSt12_Vector_baseIN2cv3MatESaIS1_EE19_M_get_Tp_allocatorEv>
    e260:	4603      	mov	r3, r0
    e262:	4628      	mov	r0, r5
    e264:	4621      	mov	r1, r4
    e266:	461a      	mov	r2, r3
    e268:	f000 f980 	bl	e56c <_ZSt8_DestroyIPN2cv3MatES1_EvT_S3_RSaIT0_E>
    e26c:	687b      	ldr	r3, [r7, #4]
    e26e:	4618      	mov	r0, r3
    e270:	f000 f948 	bl	e504 <_ZNSt12_Vector_baseIN2cv3MatESaIS1_EED1Ev>
    e274:	687b      	ldr	r3, [r7, #4]
    e276:	e005      	b.n	e284 <_ZNSt6vectorIN2cv3MatESaIS1_EED1Ev+0x3c>
    e278:	687b      	ldr	r3, [r7, #4]
    e27a:	4618      	mov	r0, r3
    e27c:	f000 f942 	bl	e504 <_ZNSt12_Vector_baseIN2cv3MatESaIS1_EED1Ev>
    e280:	f7fd efdc 	blx	c23c <_init+0x2b4>
    e284:	4618      	mov	r0, r3
    e286:	3708      	adds	r7, #8
    e288:	46bd      	mov	sp, r7
    e28a:	bdb0      	pop	{r4, r5, r7, pc}

0000e28c <_ZNSt6vectorIN2cv3gpu6GpuMatESaIS2_EEC1Ev>:
    e28c:	b580      	push	{r7, lr}
    e28e:	b082      	sub	sp, #8
    e290:	af00      	add	r7, sp, #0
    e292:	6078      	str	r0, [r7, #4]
    e294:	687b      	ldr	r3, [r7, #4]
    e296:	4618      	mov	r0, r3
    e298:	f000 f982 	bl	e5a0 <_ZNSt12_Vector_baseIN2cv3gpu6GpuMatESaIS2_EEC1Ev>
    e29c:	687b      	ldr	r3, [r7, #4]
    e29e:	4618      	mov	r0, r3
    e2a0:	3708      	adds	r7, #8
    e2a2:	46bd      	mov	sp, r7
    e2a4:	bd80      	pop	{r7, pc}
    e2a6:	bf00      	nop

0000e2a8 <_ZNSt6vectorIN2cv3gpu6GpuMatESaIS2_EED1Ev>:
    e2a8:	b5b0      	push	{r4, r5, r7, lr}
    e2aa:	b082      	sub	sp, #8
    e2ac:	af00      	add	r7, sp, #0
    e2ae:	6078      	str	r0, [r7, #4]
    e2b0:	687b      	ldr	r3, [r7, #4]
    e2b2:	681d      	ldr	r5, [r3, #0]
    e2b4:	687b      	ldr	r3, [r7, #4]
    e2b6:	685c      	ldr	r4, [r3, #4]
    e2b8:	687b      	ldr	r3, [r7, #4]
    e2ba:	4618      	mov	r0, r3
    e2bc:	f000 f9a0 	bl	e600 <_ZNSt12_Vector_baseIN2cv3gpu6GpuMatESaIS2_EE19_M_get_Tp_allocatorEv>
    e2c0:	4603      	mov	r3, r0
    e2c2:	4628      	mov	r0, r5
    e2c4:	4621      	mov	r1, r4
    e2c6:	461a      	mov	r2, r3
    e2c8:	f000 f9a6 	bl	e618 <_ZSt8_DestroyIPN2cv3gpu6GpuMatES2_EvT_S4_RSaIT0_E>
    e2cc:	687b      	ldr	r3, [r7, #4]
    e2ce:	4618      	mov	r0, r3
    e2d0:	f000 f974 	bl	e5bc <_ZNSt12_Vector_baseIN2cv3gpu6GpuMatESaIS2_EED1Ev>
    e2d4:	687b      	ldr	r3, [r7, #4]
    e2d6:	e005      	b.n	e2e4 <_ZNSt6vectorIN2cv3gpu6GpuMatESaIS2_EED1Ev+0x3c>
    e2d8:	687b      	ldr	r3, [r7, #4]
    e2da:	4618      	mov	r0, r3
    e2dc:	f000 f96e 	bl	e5bc <_ZNSt12_Vector_baseIN2cv3gpu6GpuMatESaIS2_EED1Ev>
    e2e0:	f7fd efac 	blx	c23c <_init+0x2b4>
    e2e4:	4618      	mov	r0, r3
    e2e6:	3708      	adds	r7, #8
    e2e8:	46bd      	mov	sp, r7
    e2ea:	bdb0      	pop	{r4, r5, r7, pc}

0000e2ec <_ZNSt6vectorIN2cv3MatESaIS1_EEixEj>:
    e2ec:	b480      	push	{r7}
    e2ee:	b083      	sub	sp, #12
    e2f0:	af00      	add	r7, sp, #0
    e2f2:	6078      	str	r0, [r7, #4]
    e2f4:	6039      	str	r1, [r7, #0]
    e2f6:	687b      	ldr	r3, [r7, #4]
    e2f8:	6819      	ldr	r1, [r3, #0]
    e2fa:	683a      	ldr	r2, [r7, #0]
    e2fc:	4613      	mov	r3, r2
    e2fe:	00db      	lsls	r3, r3, #3
    e300:	1a9b      	subs	r3, r3, r2
    e302:	00db      	lsls	r3, r3, #3
    e304:	440b      	add	r3, r1
    e306:	4618      	mov	r0, r3
    e308:	370c      	adds	r7, #12
    e30a:	46bd      	mov	sp, r7
    e30c:	f85d 7b04 	ldr.w	r7, [sp], #4
    e310:	4770      	bx	lr
    e312:	bf00      	nop

0000e314 <_ZN2cv12_OutputArrayC1INS_3VecIfLi3EEEEERSt6vectorIT_SaIS5_EE>:
    e314:	b580      	push	{r7, lr}
    e316:	b082      	sub	sp, #8
    e318:	af00      	add	r7, sp, #0
    e31a:	6078      	str	r0, [r7, #4]
    e31c:	6039      	str	r1, [r7, #0]
    e31e:	687b      	ldr	r3, [r7, #4]
    e320:	4618      	mov	r0, r3
    e322:	6839      	ldr	r1, [r7, #0]
    e324:	f000 f986 	bl	e634 <_ZN2cv11_InputArrayC1INS_3VecIfLi3EEEEERKSt6vectorIT_SaIS5_EE>
    e328:	687b      	ldr	r3, [r7, #4]
    e32a:	4a03      	ldr	r2, [pc, #12]	; (e338 <_ZN2cv12_OutputArrayC1INS_3VecIfLi3EEEEERSt6vectorIT_SaIS5_EE+0x24>)
    e32c:	601a      	str	r2, [r3, #0]
    e32e:	687b      	ldr	r3, [r7, #4]
    e330:	4618      	mov	r0, r3
    e332:	3708      	adds	r7, #8
    e334:	46bd      	mov	sp, r7
    e336:	bd80      	pop	{r7, pc}
    e338:	000182b8 	.word	0x000182b8

0000e33c <_ZNKSt6vectorIN2cv3VecIfLi3EEESaIS2_EE4sizeEv>:
    e33c:	b480      	push	{r7}
    e33e:	b083      	sub	sp, #12
    e340:	af00      	add	r7, sp, #0
    e342:	6078      	str	r0, [r7, #4]
    e344:	687b      	ldr	r3, [r7, #4]
    e346:	685b      	ldr	r3, [r3, #4]
    e348:	461a      	mov	r2, r3
    e34a:	687b      	ldr	r3, [r7, #4]
    e34c:	681b      	ldr	r3, [r3, #0]
    e34e:	1ad3      	subs	r3, r2, r3
    e350:	109a      	asrs	r2, r3, #2
    e352:	f64a 23ab 	movw	r3, #43691	; 0xaaab
    e356:	f6ca 23aa 	movt	r3, #43690	; 0xaaaa
    e35a:	fb03 f302 	mul.w	r3, r3, r2
    e35e:	4618      	mov	r0, r3
    e360:	370c      	adds	r7, #12
    e362:	46bd      	mov	sp, r7
    e364:	f85d 7b04 	ldr.w	r7, [sp], #4
    e368:	4770      	bx	lr
    e36a:	bf00      	nop

0000e36c <_ZNSt6vectorIN2cv3VecIfLi3EEESaIS2_EEixEj>:
    e36c:	b480      	push	{r7}
    e36e:	b083      	sub	sp, #12
    e370:	af00      	add	r7, sp, #0
    e372:	6078      	str	r0, [r7, #4]
    e374:	6039      	str	r1, [r7, #0]
    e376:	687b      	ldr	r3, [r7, #4]
    e378:	6819      	ldr	r1, [r3, #0]
    e37a:	683a      	ldr	r2, [r7, #0]
    e37c:	4613      	mov	r3, r2
    e37e:	005b      	lsls	r3, r3, #1
    e380:	4413      	add	r3, r2
    e382:	009b      	lsls	r3, r3, #2
    e384:	440b      	add	r3, r1
    e386:	4618      	mov	r0, r3
    e388:	370c      	adds	r7, #12
    e38a:	46bd      	mov	sp, r7
    e38c:	f85d 7b04 	ldr.w	r7, [sp], #4
    e390:	4770      	bx	lr
    e392:	bf00      	nop

0000e394 <_ZN2cv3VecIfLi3EEixEi>:
    e394:	b480      	push	{r7}
    e396:	b083      	sub	sp, #12
    e398:	af00      	add	r7, sp, #0
    e39a:	6078      	str	r0, [r7, #4]
    e39c:	6039      	str	r1, [r7, #0]
    e39e:	683b      	ldr	r3, [r7, #0]
    e3a0:	009b      	lsls	r3, r3, #2
    e3a2:	687a      	ldr	r2, [r7, #4]
    e3a4:	4413      	add	r3, r2
    e3a6:	4618      	mov	r0, r3
    e3a8:	370c      	adds	r7, #12
    e3aa:	46bd      	mov	sp, r7
    e3ac:	f85d 7b04 	ldr.w	r7, [sp], #4
    e3b0:	4770      	bx	lr
    e3b2:	bf00      	nop

0000e3b4 <_ZN2cv7Scalar_IdEC1Edddd>:
    e3b4:	b580      	push	{r7, lr}
    e3b6:	b08a      	sub	sp, #40	; 0x28
    e3b8:	af00      	add	r7, sp, #0
    e3ba:	6278      	str	r0, [r7, #36]	; 0x24
    e3bc:	ed87 0b06 	vstr	d0, [r7, #24]
    e3c0:	ed87 1b04 	vstr	d1, [r7, #16]
    e3c4:	ed87 2b02 	vstr	d2, [r7, #8]
    e3c8:	ed87 3b00 	vstr	d3, [r7]
    e3cc:	6a7b      	ldr	r3, [r7, #36]	; 0x24
    e3ce:	4618      	mov	r0, r3
    e3d0:	f000 f870 	bl	e4b4 <_ZN2cv3VecIdLi4EEC1Ev>
    e3d4:	6a79      	ldr	r1, [r7, #36]	; 0x24
    e3d6:	e9d7 2306 	ldrd	r2, r3, [r7, #24]
    e3da:	e9c1 2300 	strd	r2, r3, [r1]
    e3de:	6a79      	ldr	r1, [r7, #36]	; 0x24
    e3e0:	e9d7 2304 	ldrd	r2, r3, [r7, #16]
    e3e4:	e9c1 2302 	strd	r2, r3, [r1, #8]
    e3e8:	6a79      	ldr	r1, [r7, #36]	; 0x24
    e3ea:	e9d7 2302 	ldrd	r2, r3, [r7, #8]
    e3ee:	e9c1 2304 	strd	r2, r3, [r1, #16]
    e3f2:	6a79      	ldr	r1, [r7, #36]	; 0x24
    e3f4:	e9d7 2300 	ldrd	r2, r3, [r7]
    e3f8:	e9c1 2306 	strd	r2, r3, [r1, #24]
    e3fc:	6a7b      	ldr	r3, [r7, #36]	; 0x24
    e3fe:	4618      	mov	r0, r3
    e400:	3728      	adds	r7, #40	; 0x28
    e402:	46bd      	mov	sp, r7
    e404:	bd80      	pop	{r7, pc}
    e406:	bf00      	nop

0000e408 <_ZNSt6vectorIN2cv3gpu6GpuMatESaIS2_EEixEj>:
    e408:	b480      	push	{r7}
    e40a:	b083      	sub	sp, #12
    e40c:	af00      	add	r7, sp, #0
    e40e:	6078      	str	r0, [r7, #4]
    e410:	6039      	str	r1, [r7, #0]
    e412:	687b      	ldr	r3, [r7, #4]
    e414:	681a      	ldr	r2, [r3, #0]
    e416:	683b      	ldr	r3, [r7, #0]
    e418:	015b      	lsls	r3, r3, #5
    e41a:	4413      	add	r3, r2
    e41c:	4618      	mov	r0, r3
    e41e:	370c      	adds	r7, #12
    e420:	46bd      	mov	sp, r7
    e422:	f85d 7b04 	ldr.w	r7, [sp], #4
    e426:	4770      	bx	lr

0000e428 <_ZNSt6vectorIN2cv3VecIfLi3EEESaIS2_EEC1Ev>:
    e428:	b580      	push	{r7, lr}
    e42a:	b082      	sub	sp, #8
    e42c:	af00      	add	r7, sp, #0
    e42e:	6078      	str	r0, [r7, #4]
    e430:	687b      	ldr	r3, [r7, #4]
    e432:	4618      	mov	r0, r3
    e434:	f000 f926 	bl	e684 <_ZNSt12_Vector_baseIN2cv3VecIfLi3EEESaIS2_EEC1Ev>
    e438:	687b      	ldr	r3, [r7, #4]
    e43a:	4618      	mov	r0, r3
    e43c:	3708      	adds	r7, #8
    e43e:	46bd      	mov	sp, r7
    e440:	bd80      	pop	{r7, pc}
    e442:	bf00      	nop

0000e444 <_ZNSt6vectorIN2cv3VecIfLi3EEESaIS2_EED1Ev>:
    e444:	b5b0      	push	{r4, r5, r7, lr}
    e446:	b082      	sub	sp, #8
    e448:	af00      	add	r7, sp, #0
    e44a:	6078      	str	r0, [r7, #4]
    e44c:	687b      	ldr	r3, [r7, #4]
    e44e:	681d      	ldr	r5, [r3, #0]
    e450:	687b      	ldr	r3, [r7, #4]
    e452:	685c      	ldr	r4, [r3, #4]
    e454:	687b      	ldr	r3, [r7, #4]
    e456:	4618      	mov	r0, r3
    e458:	f000 f94a 	bl	e6f0 <_ZNSt12_Vector_baseIN2cv3VecIfLi3EEESaIS2_EE19_M_get_Tp_allocatorEv>
    e45c:	4603      	mov	r3, r0
    e45e:	4628      	mov	r0, r5
    e460:	4621      	mov	r1, r4
    e462:	461a      	mov	r2, r3
    e464:	f000 f950 	bl	e708 <_ZSt8_DestroyIPN2cv3VecIfLi3EEES2_EvT_S4_RSaIT0_E>
    e468:	687b      	ldr	r3, [r7, #4]
    e46a:	4618      	mov	r0, r3
    e46c:	f000 f918 	bl	e6a0 <_ZNSt12_Vector_baseIN2cv3VecIfLi3EEESaIS2_EED1Ev>
    e470:	687b      	ldr	r3, [r7, #4]
    e472:	e005      	b.n	e480 <_ZNSt6vectorIN2cv3VecIfLi3EEESaIS2_EED1Ev+0x3c>
    e474:	687b      	ldr	r3, [r7, #4]
    e476:	4618      	mov	r0, r3
    e478:	f000 f912 	bl	e6a0 <_ZNSt12_Vector_baseIN2cv3VecIfLi3EEESaIS2_EED1Ev>
    e47c:	f7fd eede 	blx	c23c <_init+0x2b4>
    e480:	4618      	mov	r0, r3
    e482:	3708      	adds	r7, #8
    e484:	46bd      	mov	sp, r7
    e486:	bdb0      	pop	{r4, r5, r7, pc}

0000e488 <_ZN2cv3PtrI9CvCaptureEC1ERKS2_>:
    e488:	b580      	push	{r7, lr}
    e48a:	b082      	sub	sp, #8
    e48c:	af00      	add	r7, sp, #0
    e48e:	6078      	str	r0, [r7, #4]
    e490:	6039      	str	r1, [r7, #0]
    e492:	683b      	ldr	r3, [r7, #0]
    e494:	681a      	ldr	r2, [r3, #0]
    e496:	687b      	ldr	r3, [r7, #4]
    e498:	601a      	str	r2, [r3, #0]
    e49a:	683b      	ldr	r3, [r7, #0]
    e49c:	685a      	ldr	r2, [r3, #4]
    e49e:	687b      	ldr	r3, [r7, #4]
    e4a0:	605a      	str	r2, [r3, #4]
    e4a2:	6878      	ldr	r0, [r7, #4]
    e4a4:	f000 f93e 	bl	e724 <_ZN2cv3PtrI9CvCaptureE6addrefEv>
    e4a8:	687b      	ldr	r3, [r7, #4]
    e4aa:	4618      	mov	r0, r3
    e4ac:	3708      	adds	r7, #8
    e4ae:	46bd      	mov	sp, r7
    e4b0:	bd80      	pop	{r7, pc}
    e4b2:	bf00      	nop

0000e4b4 <_ZN2cv3VecIdLi4EEC1Ev>:
    e4b4:	b580      	push	{r7, lr}
    e4b6:	b082      	sub	sp, #8
    e4b8:	af00      	add	r7, sp, #0
    e4ba:	6078      	str	r0, [r7, #4]
    e4bc:	687b      	ldr	r3, [r7, #4]
    e4be:	4618      	mov	r0, r3
    e4c0:	f000 f942 	bl	e748 <_ZN2cv4MatxIdLi4ELi1EEC1Ev>
    e4c4:	687b      	ldr	r3, [r7, #4]
    e4c6:	4618      	mov	r0, r3
    e4c8:	3708      	adds	r7, #8
    e4ca:	46bd      	mov	sp, r7
    e4cc:	bd80      	pop	{r7, pc}
    e4ce:	bf00      	nop

0000e4d0 <_ZNSt12_Vector_baseIN2cv3MatESaIS1_EE12_Vector_implD1Ev>:
    e4d0:	b580      	push	{r7, lr}
    e4d2:	b082      	sub	sp, #8
    e4d4:	af00      	add	r7, sp, #0
    e4d6:	6078      	str	r0, [r7, #4]
    e4d8:	6878      	ldr	r0, [r7, #4]
    e4da:	f000 f969 	bl	e7b0 <_ZNSaIN2cv3MatEED1Ev>
    e4de:	687b      	ldr	r3, [r7, #4]
    e4e0:	4618      	mov	r0, r3
    e4e2:	3708      	adds	r7, #8
    e4e4:	46bd      	mov	sp, r7
    e4e6:	bd80      	pop	{r7, pc}

0000e4e8 <_ZNSt12_Vector_baseIN2cv3MatESaIS1_EEC1Ev>:
    e4e8:	b580      	push	{r7, lr}
    e4ea:	b082      	sub	sp, #8
    e4ec:	af00      	add	r7, sp, #0
    e4ee:	6078      	str	r0, [r7, #4]
    e4f0:	687b      	ldr	r3, [r7, #4]
    e4f2:	4618      	mov	r0, r3
    e4f4:	f000 f946 	bl	e784 <_ZNSt12_Vector_baseIN2cv3MatESaIS1_EE12_Vector_implC1Ev>
    e4f8:	687b      	ldr	r3, [r7, #4]
    e4fa:	4618      	mov	r0, r3
    e4fc:	3708      	adds	r7, #8
    e4fe:	46bd      	mov	sp, r7
    e500:	bd80      	pop	{r7, pc}
    e502:	bf00      	nop

0000e504 <_ZNSt12_Vector_baseIN2cv3MatESaIS1_EED1Ev>:
    e504:	b580      	push	{r7, lr}
    e506:	b082      	sub	sp, #8
    e508:	af00      	add	r7, sp, #0
    e50a:	6078      	str	r0, [r7, #4]
    e50c:	687b      	ldr	r3, [r7, #4]
    e50e:	681a      	ldr	r2, [r3, #0]
    e510:	687b      	ldr	r3, [r7, #4]
    e512:	689b      	ldr	r3, [r3, #8]
    e514:	4619      	mov	r1, r3
    e516:	687b      	ldr	r3, [r7, #4]
    e518:	681b      	ldr	r3, [r3, #0]
    e51a:	1acb      	subs	r3, r1, r3
    e51c:	10d9      	asrs	r1, r3, #3
    e51e:	f646 53b7 	movw	r3, #28087	; 0x6db7
    e522:	f2cb 63db 	movt	r3, #46811	; 0xb6db
    e526:	fb03 f301 	mul.w	r3, r3, r1
    e52a:	6878      	ldr	r0, [r7, #4]
    e52c:	4611      	mov	r1, r2
    e52e:	461a      	mov	r2, r3
    e530:	f000 f94a 	bl	e7c8 <_ZNSt12_Vector_baseIN2cv3MatESaIS1_EE13_M_deallocateEPS1_j>
    e534:	687b      	ldr	r3, [r7, #4]
    e536:	4618      	mov	r0, r3
    e538:	f7ff ffca 	bl	e4d0 <_ZNSt12_Vector_baseIN2cv3MatESaIS1_EE12_Vector_implD1Ev>
    e53c:	687b      	ldr	r3, [r7, #4]
    e53e:	e005      	b.n	e54c <_ZNSt12_Vector_baseIN2cv3MatESaIS1_EED1Ev+0x48>
    e540:	687b      	ldr	r3, [r7, #4]
    e542:	4618      	mov	r0, r3
    e544:	f7ff ffc4 	bl	e4d0 <_ZNSt12_Vector_baseIN2cv3MatESaIS1_EE12_Vector_implD1Ev>
    e548:	f7fd ee78 	blx	c23c <_init+0x2b4>
    e54c:	4618      	mov	r0, r3
    e54e:	3708      	adds	r7, #8
    e550:	46bd      	mov	sp, r7
    e552:	bd80      	pop	{r7, pc}

0000e554 <_ZNSt12_Vector_baseIN2cv3MatESaIS1_EE19_M_get_Tp_allocatorEv>:
    e554:	b480      	push	{r7}
    e556:	b083      	sub	sp, #12
    e558:	af00      	add	r7, sp, #0
    e55a:	6078      	str	r0, [r7, #4]
    e55c:	687b      	ldr	r3, [r7, #4]
    e55e:	4618      	mov	r0, r3
    e560:	370c      	adds	r7, #12
    e562:	46bd      	mov	sp, r7
    e564:	f85d 7b04 	ldr.w	r7, [sp], #4
    e568:	4770      	bx	lr
    e56a:	bf00      	nop

0000e56c <_ZSt8_DestroyIPN2cv3MatES1_EvT_S3_RSaIT0_E>:
    e56c:	b580      	push	{r7, lr}
    e56e:	b084      	sub	sp, #16
    e570:	af00      	add	r7, sp, #0
    e572:	60f8      	str	r0, [r7, #12]
    e574:	60b9      	str	r1, [r7, #8]
    e576:	607a      	str	r2, [r7, #4]
    e578:	68f8      	ldr	r0, [r7, #12]
    e57a:	68b9      	ldr	r1, [r7, #8]
    e57c:	f000 f936 	bl	e7ec <_ZSt8_DestroyIPN2cv3MatEEvT_S3_>
    e580:	3710      	adds	r7, #16
    e582:	46bd      	mov	sp, r7
    e584:	bd80      	pop	{r7, pc}
    e586:	bf00      	nop

0000e588 <_ZNSt12_Vector_baseIN2cv3gpu6GpuMatESaIS2_EE12_Vector_implD1Ev>:
    e588:	b580      	push	{r7, lr}
    e58a:	b082      	sub	sp, #8
    e58c:	af00      	add	r7, sp, #0
    e58e:	6078      	str	r0, [r7, #4]
    e590:	6878      	ldr	r0, [r7, #4]
    e592:	f000 f94d 	bl	e830 <_ZNSaIN2cv3gpu6GpuMatEED1Ev>
    e596:	687b      	ldr	r3, [r7, #4]
    e598:	4618      	mov	r0, r3
    e59a:	3708      	adds	r7, #8
    e59c:	46bd      	mov	sp, r7
    e59e:	bd80      	pop	{r7, pc}

0000e5a0 <_ZNSt12_Vector_baseIN2cv3gpu6GpuMatESaIS2_EEC1Ev>:
    e5a0:	b580      	push	{r7, lr}
    e5a2:	b082      	sub	sp, #8
    e5a4:	af00      	add	r7, sp, #0
    e5a6:	6078      	str	r0, [r7, #4]
    e5a8:	687b      	ldr	r3, [r7, #4]
    e5aa:	4618      	mov	r0, r3
    e5ac:	f000 f92a 	bl	e804 <_ZNSt12_Vector_baseIN2cv3gpu6GpuMatESaIS2_EE12_Vector_implC1Ev>
    e5b0:	687b      	ldr	r3, [r7, #4]
    e5b2:	4618      	mov	r0, r3
    e5b4:	3708      	adds	r7, #8
    e5b6:	46bd      	mov	sp, r7
    e5b8:	bd80      	pop	{r7, pc}
    e5ba:	bf00      	nop

0000e5bc <_ZNSt12_Vector_baseIN2cv3gpu6GpuMatESaIS2_EED1Ev>:
    e5bc:	b580      	push	{r7, lr}
    e5be:	b082      	sub	sp, #8
    e5c0:	af00      	add	r7, sp, #0
    e5c2:	6078      	str	r0, [r7, #4]
    e5c4:	687b      	ldr	r3, [r7, #4]
    e5c6:	681a      	ldr	r2, [r3, #0]
    e5c8:	687b      	ldr	r3, [r7, #4]
    e5ca:	689b      	ldr	r3, [r3, #8]
    e5cc:	4619      	mov	r1, r3
    e5ce:	687b      	ldr	r3, [r7, #4]
    e5d0:	681b      	ldr	r3, [r3, #0]
    e5d2:	1acb      	subs	r3, r1, r3
    e5d4:	115b      	asrs	r3, r3, #5
    e5d6:	6878      	ldr	r0, [r7, #4]
    e5d8:	4611      	mov	r1, r2
    e5da:	461a      	mov	r2, r3
    e5dc:	f000 f934 	bl	e848 <_ZNSt12_Vector_baseIN2cv3gpu6GpuMatESaIS2_EE13_M_deallocateEPS2_j>
    e5e0:	687b      	ldr	r3, [r7, #4]
    e5e2:	4618      	mov	r0, r3
    e5e4:	f7ff ffd0 	bl	e588 <_ZNSt12_Vector_baseIN2cv3gpu6GpuMatESaIS2_EE12_Vector_implD1Ev>
    e5e8:	687b      	ldr	r3, [r7, #4]
    e5ea:	e005      	b.n	e5f8 <_ZNSt12_Vector_baseIN2cv3gpu6GpuMatESaIS2_EED1Ev+0x3c>
    e5ec:	687b      	ldr	r3, [r7, #4]
    e5ee:	4618      	mov	r0, r3
    e5f0:	f7ff ffca 	bl	e588 <_ZNSt12_Vector_baseIN2cv3gpu6GpuMatESaIS2_EE12_Vector_implD1Ev>
    e5f4:	f7fd ee22 	blx	c23c <_init+0x2b4>
    e5f8:	4618      	mov	r0, r3
    e5fa:	3708      	adds	r7, #8
    e5fc:	46bd      	mov	sp, r7
    e5fe:	bd80      	pop	{r7, pc}

0000e600 <_ZNSt12_Vector_baseIN2cv3gpu6GpuMatESaIS2_EE19_M_get_Tp_allocatorEv>:
    e600:	b480      	push	{r7}
    e602:	b083      	sub	sp, #12
    e604:	af00      	add	r7, sp, #0
    e606:	6078      	str	r0, [r7, #4]
    e608:	687b      	ldr	r3, [r7, #4]
    e60a:	4618      	mov	r0, r3
    e60c:	370c      	adds	r7, #12
    e60e:	46bd      	mov	sp, r7
    e610:	f85d 7b04 	ldr.w	r7, [sp], #4
    e614:	4770      	bx	lr
    e616:	bf00      	nop

0000e618 <_ZSt8_DestroyIPN2cv3gpu6GpuMatES2_EvT_S4_RSaIT0_E>:
    e618:	b580      	push	{r7, lr}
    e61a:	b084      	sub	sp, #16
    e61c:	af00      	add	r7, sp, #0
    e61e:	60f8      	str	r0, [r7, #12]
    e620:	60b9      	str	r1, [r7, #8]
    e622:	607a      	str	r2, [r7, #4]
    e624:	68f8      	ldr	r0, [r7, #12]
    e626:	68b9      	ldr	r1, [r7, #8]
    e628:	f000 f920 	bl	e86c <_ZSt8_DestroyIPN2cv3gpu6GpuMatEEvT_S4_>
    e62c:	3710      	adds	r7, #16
    e62e:	46bd      	mov	sp, r7
    e630:	bd80      	pop	{r7, pc}
    e632:	bf00      	nop

0000e634 <_ZN2cv11_InputArrayC1INS_3VecIfLi3EEEEERKSt6vectorIT_SaIS5_EE>:
    e634:	b580      	push	{r7, lr}
    e636:	b082      	sub	sp, #8
    e638:	af00      	add	r7, sp, #0
    e63a:	6078      	str	r0, [r7, #4]
    e63c:	6039      	str	r1, [r7, #0]
    e63e:	687b      	ldr	r3, [r7, #4]
    e640:	4a09      	ldr	r2, [pc, #36]	; (e668 <_ZN2cv11_InputArrayC1INS_3VecIfLi3EEEEERKSt6vectorIT_SaIS5_EE+0x34>)
    e642:	601a      	str	r2, [r3, #0]
    e644:	687a      	ldr	r2, [r7, #4]
    e646:	2315      	movs	r3, #21
    e648:	f2c8 0303 	movt	r3, #32771	; 0x8003
    e64c:	6053      	str	r3, [r2, #4]
    e64e:	687b      	ldr	r3, [r7, #4]
    e650:	683a      	ldr	r2, [r7, #0]
    e652:	609a      	str	r2, [r3, #8]
    e654:	687b      	ldr	r3, [r7, #4]
    e656:	330c      	adds	r3, #12
    e658:	4618      	mov	r0, r3
    e65a:	f7ff fdd5 	bl	e208 <_ZN2cv5Size_IiEC1Ev>
    e65e:	687b      	ldr	r3, [r7, #4]
    e660:	4618      	mov	r0, r3
    e662:	3708      	adds	r7, #8
    e664:	46bd      	mov	sp, r7
    e666:	bd80      	pop	{r7, pc}
    e668:	00018318 	.word	0x00018318

0000e66c <_ZNSt12_Vector_baseIN2cv3VecIfLi3EEESaIS2_EE12_Vector_implD1Ev>:
    e66c:	b580      	push	{r7, lr}
    e66e:	b082      	sub	sp, #8
    e670:	af00      	add	r7, sp, #0
    e672:	6078      	str	r0, [r7, #4]
    e674:	6878      	ldr	r0, [r7, #4]
    e676:	f000 f91b 	bl	e8b0 <_ZNSaIN2cv3VecIfLi3EEEED1Ev>
    e67a:	687b      	ldr	r3, [r7, #4]
    e67c:	4618      	mov	r0, r3
    e67e:	3708      	adds	r7, #8
    e680:	46bd      	mov	sp, r7
    e682:	bd80      	pop	{r7, pc}

0000e684 <_ZNSt12_Vector_baseIN2cv3VecIfLi3EEESaIS2_EEC1Ev>:
    e684:	b580      	push	{r7, lr}
    e686:	b082      	sub	sp, #8
    e688:	af00      	add	r7, sp, #0
    e68a:	6078      	str	r0, [r7, #4]
    e68c:	687b      	ldr	r3, [r7, #4]
    e68e:	4618      	mov	r0, r3
    e690:	f000 f8f8 	bl	e884 <_ZNSt12_Vector_baseIN2cv3VecIfLi3EEESaIS2_EE12_Vector_implC1Ev>
    e694:	687b      	ldr	r3, [r7, #4]
    e696:	4618      	mov	r0, r3
    e698:	3708      	adds	r7, #8
    e69a:	46bd      	mov	sp, r7
    e69c:	bd80      	pop	{r7, pc}
    e69e:	bf00      	nop

0000e6a0 <_ZNSt12_Vector_baseIN2cv3VecIfLi3EEESaIS2_EED1Ev>:
    e6a0:	b580      	push	{r7, lr}
    e6a2:	b082      	sub	sp, #8
    e6a4:	af00      	add	r7, sp, #0
    e6a6:	6078      	str	r0, [r7, #4]
    e6a8:	687b      	ldr	r3, [r7, #4]
    e6aa:	681a      	ldr	r2, [r3, #0]
    e6ac:	687b      	ldr	r3, [r7, #4]
    e6ae:	689b      	ldr	r3, [r3, #8]
    e6b0:	4619      	mov	r1, r3
    e6b2:	687b      	ldr	r3, [r7, #4]
    e6b4:	681b      	ldr	r3, [r3, #0]
    e6b6:	1acb      	subs	r3, r1, r3
    e6b8:	1099      	asrs	r1, r3, #2
    e6ba:	f64a 23ab 	movw	r3, #43691	; 0xaaab
    e6be:	f6ca 23aa 	movt	r3, #43690	; 0xaaaa
    e6c2:	fb03 f301 	mul.w	r3, r3, r1
    e6c6:	6878      	ldr	r0, [r7, #4]
    e6c8:	4611      	mov	r1, r2
    e6ca:	461a      	mov	r2, r3
    e6cc:	f000 f8fc 	bl	e8c8 <_ZNSt12_Vector_baseIN2cv3VecIfLi3EEESaIS2_EE13_M_deallocateEPS2_j>
    e6d0:	687b      	ldr	r3, [r7, #4]
    e6d2:	4618      	mov	r0, r3
    e6d4:	f7ff ffca 	bl	e66c <_ZNSt12_Vector_baseIN2cv3VecIfLi3EEESaIS2_EE12_Vector_implD1Ev>
    e6d8:	687b      	ldr	r3, [r7, #4]
    e6da:	e005      	b.n	e6e8 <_ZNSt12_Vector_baseIN2cv3VecIfLi3EEESaIS2_EED1Ev+0x48>
    e6dc:	687b      	ldr	r3, [r7, #4]
    e6de:	4618      	mov	r0, r3
    e6e0:	f7ff ffc4 	bl	e66c <_ZNSt12_Vector_baseIN2cv3VecIfLi3EEESaIS2_EE12_Vector_implD1Ev>
    e6e4:	f7fd edaa 	blx	c23c <_init+0x2b4>
    e6e8:	4618      	mov	r0, r3
    e6ea:	3708      	adds	r7, #8
    e6ec:	46bd      	mov	sp, r7
    e6ee:	bd80      	pop	{r7, pc}

0000e6f0 <_ZNSt12_Vector_baseIN2cv3VecIfLi3EEESaIS2_EE19_M_get_Tp_allocatorEv>:
    e6f0:	b480      	push	{r7}
    e6f2:	b083      	sub	sp, #12
    e6f4:	af00      	add	r7, sp, #0
    e6f6:	6078      	str	r0, [r7, #4]
    e6f8:	687b      	ldr	r3, [r7, #4]
    e6fa:	4618      	mov	r0, r3
    e6fc:	370c      	adds	r7, #12
    e6fe:	46bd      	mov	sp, r7
    e700:	f85d 7b04 	ldr.w	r7, [sp], #4
    e704:	4770      	bx	lr
    e706:	bf00      	nop

0000e708 <_ZSt8_DestroyIPN2cv3VecIfLi3EEES2_EvT_S4_RSaIT0_E>:
    e708:	b580      	push	{r7, lr}
    e70a:	b084      	sub	sp, #16
    e70c:	af00      	add	r7, sp, #0
    e70e:	60f8      	str	r0, [r7, #12]
    e710:	60b9      	str	r1, [r7, #8]
    e712:	607a      	str	r2, [r7, #4]
    e714:	68f8      	ldr	r0, [r7, #12]
    e716:	68b9      	ldr	r1, [r7, #8]
    e718:	f000 f8e8 	bl	e8ec <_ZSt8_DestroyIPN2cv3VecIfLi3EEEEvT_S4_>
    e71c:	3710      	adds	r7, #16
    e71e:	46bd      	mov	sp, r7
    e720:	bd80      	pop	{r7, pc}
    e722:	bf00      	nop

0000e724 <_ZN2cv3PtrI9CvCaptureE6addrefEv>:
    e724:	b580      	push	{r7, lr}
    e726:	b082      	sub	sp, #8
    e728:	af00      	add	r7, sp, #0
    e72a:	6078      	str	r0, [r7, #4]
    e72c:	687b      	ldr	r3, [r7, #4]
    e72e:	685b      	ldr	r3, [r3, #4]
    e730:	2b00      	cmp	r3, #0
    e732:	d005      	beq.n	e740 <_ZN2cv3PtrI9CvCaptureE6addrefEv+0x1c>
    e734:	687b      	ldr	r3, [r7, #4]
    e736:	685b      	ldr	r3, [r3, #4]
    e738:	4618      	mov	r0, r3
    e73a:	2101      	movs	r1, #1
    e73c:	f7fd fe54 	bl	c3e8 <_ZN9__gnu_cxxL18__exchange_and_addEPVii>
    e740:	3708      	adds	r7, #8
    e742:	46bd      	mov	sp, r7
    e744:	bd80      	pop	{r7, pc}
    e746:	bf00      	nop

0000e748 <_ZN2cv4MatxIdLi4ELi1EEC1Ev>:
    e748:	b480      	push	{r7}
    e74a:	b085      	sub	sp, #20
    e74c:	af00      	add	r7, sp, #0
    e74e:	6078      	str	r0, [r7, #4]
    e750:	2300      	movs	r3, #0
    e752:	60fb      	str	r3, [r7, #12]
    e754:	e00c      	b.n	e770 <_ZN2cv4MatxIdLi4ELi1EEC1Ev+0x28>
    e756:	687a      	ldr	r2, [r7, #4]
    e758:	68fb      	ldr	r3, [r7, #12]
    e75a:	00db      	lsls	r3, r3, #3
    e75c:	18d1      	adds	r1, r2, r3
    e75e:	f04f 0200 	mov.w	r2, #0
    e762:	f04f 0300 	mov.w	r3, #0
    e766:	e9c1 2300 	strd	r2, r3, [r1]
    e76a:	68fb      	ldr	r3, [r7, #12]
    e76c:	3301      	adds	r3, #1
    e76e:	60fb      	str	r3, [r7, #12]
    e770:	68fb      	ldr	r3, [r7, #12]
    e772:	2b03      	cmp	r3, #3
    e774:	ddef      	ble.n	e756 <_ZN2cv4MatxIdLi4ELi1EEC1Ev+0xe>
    e776:	687b      	ldr	r3, [r7, #4]
    e778:	4618      	mov	r0, r3
    e77a:	3714      	adds	r7, #20
    e77c:	46bd      	mov	sp, r7
    e77e:	f85d 7b04 	ldr.w	r7, [sp], #4
    e782:	4770      	bx	lr

0000e784 <_ZNSt12_Vector_baseIN2cv3MatESaIS1_EE12_Vector_implC1Ev>:
    e784:	b580      	push	{r7, lr}
    e786:	b082      	sub	sp, #8
    e788:	af00      	add	r7, sp, #0
    e78a:	6078      	str	r0, [r7, #4]
    e78c:	6878      	ldr	r0, [r7, #4]
    e78e:	f000 f8b9 	bl	e904 <_ZNSaIN2cv3MatEEC1Ev>
    e792:	687b      	ldr	r3, [r7, #4]
    e794:	2200      	movs	r2, #0
    e796:	601a      	str	r2, [r3, #0]
    e798:	687b      	ldr	r3, [r7, #4]
    e79a:	2200      	movs	r2, #0
    e79c:	605a      	str	r2, [r3, #4]
    e79e:	687b      	ldr	r3, [r7, #4]
    e7a0:	2200      	movs	r2, #0
    e7a2:	609a      	str	r2, [r3, #8]
    e7a4:	687b      	ldr	r3, [r7, #4]
    e7a6:	4618      	mov	r0, r3
    e7a8:	3708      	adds	r7, #8
    e7aa:	46bd      	mov	sp, r7
    e7ac:	bd80      	pop	{r7, pc}
    e7ae:	bf00      	nop

0000e7b0 <_ZNSaIN2cv3MatEED1Ev>:
    e7b0:	b580      	push	{r7, lr}
    e7b2:	b082      	sub	sp, #8
    e7b4:	af00      	add	r7, sp, #0
    e7b6:	6078      	str	r0, [r7, #4]
    e7b8:	6878      	ldr	r0, [r7, #4]
    e7ba:	f000 f8af 	bl	e91c <_ZN9__gnu_cxx13new_allocatorIN2cv3MatEED1Ev>
    e7be:	687b      	ldr	r3, [r7, #4]
    e7c0:	4618      	mov	r0, r3
    e7c2:	3708      	adds	r7, #8
    e7c4:	46bd      	mov	sp, r7
    e7c6:	bd80      	pop	{r7, pc}

0000e7c8 <_ZNSt12_Vector_baseIN2cv3MatESaIS1_EE13_M_deallocateEPS1_j>:
    e7c8:	b580      	push	{r7, lr}
    e7ca:	b084      	sub	sp, #16
    e7cc:	af00      	add	r7, sp, #0
    e7ce:	60f8      	str	r0, [r7, #12]
    e7d0:	60b9      	str	r1, [r7, #8]
    e7d2:	607a      	str	r2, [r7, #4]
    e7d4:	68bb      	ldr	r3, [r7, #8]
    e7d6:	2b00      	cmp	r3, #0
    e7d8:	d005      	beq.n	e7e6 <_ZNSt12_Vector_baseIN2cv3MatESaIS1_EE13_M_deallocateEPS1_j+0x1e>
    e7da:	68fb      	ldr	r3, [r7, #12]
    e7dc:	4618      	mov	r0, r3
    e7de:	68b9      	ldr	r1, [r7, #8]
    e7e0:	687a      	ldr	r2, [r7, #4]
    e7e2:	f000 f8a7 	bl	e934 <_ZN9__gnu_cxx13new_allocatorIN2cv3MatEE10deallocateEPS2_j>
    e7e6:	3710      	adds	r7, #16
    e7e8:	46bd      	mov	sp, r7
    e7ea:	bd80      	pop	{r7, pc}

0000e7ec <_ZSt8_DestroyIPN2cv3MatEEvT_S3_>:
    e7ec:	b580      	push	{r7, lr}
    e7ee:	b082      	sub	sp, #8
    e7f0:	af00      	add	r7, sp, #0
    e7f2:	6078      	str	r0, [r7, #4]
    e7f4:	6039      	str	r1, [r7, #0]
    e7f6:	6878      	ldr	r0, [r7, #4]
    e7f8:	6839      	ldr	r1, [r7, #0]
    e7fa:	f000 f8a7 	bl	e94c <_ZNSt12_Destroy_auxILb0EE9__destroyIPN2cv3MatEEEvT_S5_>
    e7fe:	3708      	adds	r7, #8
    e800:	46bd      	mov	sp, r7
    e802:	bd80      	pop	{r7, pc}

0000e804 <_ZNSt12_Vector_baseIN2cv3gpu6GpuMatESaIS2_EE12_Vector_implC1Ev>:
    e804:	b580      	push	{r7, lr}
    e806:	b082      	sub	sp, #8
    e808:	af00      	add	r7, sp, #0
    e80a:	6078      	str	r0, [r7, #4]
    e80c:	6878      	ldr	r0, [r7, #4]
    e80e:	f000 f8b5 	bl	e97c <_ZNSaIN2cv3gpu6GpuMatEEC1Ev>
    e812:	687b      	ldr	r3, [r7, #4]
    e814:	2200      	movs	r2, #0
    e816:	601a      	str	r2, [r3, #0]
    e818:	687b      	ldr	r3, [r7, #4]
    e81a:	2200      	movs	r2, #0
    e81c:	605a      	str	r2, [r3, #4]
    e81e:	687b      	ldr	r3, [r7, #4]
    e820:	2200      	movs	r2, #0
    e822:	609a      	str	r2, [r3, #8]
    e824:	687b      	ldr	r3, [r7, #4]
    e826:	4618      	mov	r0, r3
    e828:	3708      	adds	r7, #8
    e82a:	46bd      	mov	sp, r7
    e82c:	bd80      	pop	{r7, pc}
    e82e:	bf00      	nop

0000e830 <_ZNSaIN2cv3gpu6GpuMatEED1Ev>:
    e830:	b580      	push	{r7, lr}
    e832:	b082      	sub	sp, #8
    e834:	af00      	add	r7, sp, #0
    e836:	6078      	str	r0, [r7, #4]
    e838:	6878      	ldr	r0, [r7, #4]
    e83a:	f000 f8ab 	bl	e994 <_ZN9__gnu_cxx13new_allocatorIN2cv3gpu6GpuMatEED1Ev>
    e83e:	687b      	ldr	r3, [r7, #4]
    e840:	4618      	mov	r0, r3
    e842:	3708      	adds	r7, #8
    e844:	46bd      	mov	sp, r7
    e846:	bd80      	pop	{r7, pc}

0000e848 <_ZNSt12_Vector_baseIN2cv3gpu6GpuMatESaIS2_EE13_M_deallocateEPS2_j>:
    e848:	b580      	push	{r7, lr}
    e84a:	b084      	sub	sp, #16
    e84c:	af00      	add	r7, sp, #0
    e84e:	60f8      	str	r0, [r7, #12]
    e850:	60b9      	str	r1, [r7, #8]
    e852:	607a      	str	r2, [r7, #4]
    e854:	68bb      	ldr	r3, [r7, #8]
    e856:	2b00      	cmp	r3, #0
    e858:	d005      	beq.n	e866 <_ZNSt12_Vector_baseIN2cv3gpu6GpuMatESaIS2_EE13_M_deallocateEPS2_j+0x1e>
    e85a:	68fb      	ldr	r3, [r7, #12]
    e85c:	4618      	mov	r0, r3
    e85e:	68b9      	ldr	r1, [r7, #8]
    e860:	687a      	ldr	r2, [r7, #4]
    e862:	f000 f8a3 	bl	e9ac <_ZN9__gnu_cxx13new_allocatorIN2cv3gpu6GpuMatEE10deallocateEPS3_j>
    e866:	3710      	adds	r7, #16
    e868:	46bd      	mov	sp, r7
    e86a:	bd80      	pop	{r7, pc}

0000e86c <_ZSt8_DestroyIPN2cv3gpu6GpuMatEEvT_S4_>:
    e86c:	b580      	push	{r7, lr}
    e86e:	b082      	sub	sp, #8
    e870:	af00      	add	r7, sp, #0
    e872:	6078      	str	r0, [r7, #4]
    e874:	6039      	str	r1, [r7, #0]
    e876:	6878      	ldr	r0, [r7, #4]
    e878:	6839      	ldr	r1, [r7, #0]
    e87a:	f000 f8a3 	bl	e9c4 <_ZNSt12_Destroy_auxILb0EE9__destroyIPN2cv3gpu6GpuMatEEEvT_S6_>
    e87e:	3708      	adds	r7, #8
    e880:	46bd      	mov	sp, r7
    e882:	bd80      	pop	{r7, pc}

0000e884 <_ZNSt12_Vector_baseIN2cv3VecIfLi3EEESaIS2_EE12_Vector_implC1Ev>:
    e884:	b580      	push	{r7, lr}
    e886:	b082      	sub	sp, #8
    e888:	af00      	add	r7, sp, #0
    e88a:	6078      	str	r0, [r7, #4]
    e88c:	6878      	ldr	r0, [r7, #4]
    e88e:	f000 f8b1 	bl	e9f4 <_ZNSaIN2cv3VecIfLi3EEEEC1Ev>
    e892:	687b      	ldr	r3, [r7, #4]
    e894:	2200      	movs	r2, #0
    e896:	601a      	str	r2, [r3, #0]
    e898:	687b      	ldr	r3, [r7, #4]
    e89a:	2200      	movs	r2, #0
    e89c:	605a      	str	r2, [r3, #4]
    e89e:	687b      	ldr	r3, [r7, #4]
    e8a0:	2200      	movs	r2, #0
    e8a2:	609a      	str	r2, [r3, #8]
    e8a4:	687b      	ldr	r3, [r7, #4]
    e8a6:	4618      	mov	r0, r3
    e8a8:	3708      	adds	r7, #8
    e8aa:	46bd      	mov	sp, r7
    e8ac:	bd80      	pop	{r7, pc}
    e8ae:	bf00      	nop

0000e8b0 <_ZNSaIN2cv3VecIfLi3EEEED1Ev>:
    e8b0:	b580      	push	{r7, lr}
    e8b2:	b082      	sub	sp, #8
    e8b4:	af00      	add	r7, sp, #0
    e8b6:	6078      	str	r0, [r7, #4]
    e8b8:	6878      	ldr	r0, [r7, #4]
    e8ba:	f000 f8a7 	bl	ea0c <_ZN9__gnu_cxx13new_allocatorIN2cv3VecIfLi3EEEED1Ev>
    e8be:	687b      	ldr	r3, [r7, #4]
    e8c0:	4618      	mov	r0, r3
    e8c2:	3708      	adds	r7, #8
    e8c4:	46bd      	mov	sp, r7
    e8c6:	bd80      	pop	{r7, pc}

0000e8c8 <_ZNSt12_Vector_baseIN2cv3VecIfLi3EEESaIS2_EE13_M_deallocateEPS2_j>:
    e8c8:	b580      	push	{r7, lr}
    e8ca:	b084      	sub	sp, #16
    e8cc:	af00      	add	r7, sp, #0
    e8ce:	60f8      	str	r0, [r7, #12]
    e8d0:	60b9      	str	r1, [r7, #8]
    e8d2:	607a      	str	r2, [r7, #4]
    e8d4:	68bb      	ldr	r3, [r7, #8]
    e8d6:	2b00      	cmp	r3, #0
    e8d8:	d005      	beq.n	e8e6 <_ZNSt12_Vector_baseIN2cv3VecIfLi3EEESaIS2_EE13_M_deallocateEPS2_j+0x1e>
    e8da:	68fb      	ldr	r3, [r7, #12]
    e8dc:	4618      	mov	r0, r3
    e8de:	68b9      	ldr	r1, [r7, #8]
    e8e0:	687a      	ldr	r2, [r7, #4]
    e8e2:	f000 f89f 	bl	ea24 <_ZN9__gnu_cxx13new_allocatorIN2cv3VecIfLi3EEEE10deallocateEPS3_j>
    e8e6:	3710      	adds	r7, #16
    e8e8:	46bd      	mov	sp, r7
    e8ea:	bd80      	pop	{r7, pc}

0000e8ec <_ZSt8_DestroyIPN2cv3VecIfLi3EEEEvT_S4_>:
    e8ec:	b580      	push	{r7, lr}
    e8ee:	b082      	sub	sp, #8
    e8f0:	af00      	add	r7, sp, #0
    e8f2:	6078      	str	r0, [r7, #4]
    e8f4:	6039      	str	r1, [r7, #0]
    e8f6:	6878      	ldr	r0, [r7, #4]
    e8f8:	6839      	ldr	r1, [r7, #0]
    e8fa:	f000 f89f 	bl	ea3c <_ZNSt12_Destroy_auxILb1EE9__destroyIPN2cv3VecIfLi3EEEEEvT_S6_>
    e8fe:	3708      	adds	r7, #8
    e900:	46bd      	mov	sp, r7
    e902:	bd80      	pop	{r7, pc}

0000e904 <_ZNSaIN2cv3MatEEC1Ev>:
    e904:	b580      	push	{r7, lr}
    e906:	b082      	sub	sp, #8
    e908:	af00      	add	r7, sp, #0
    e90a:	6078      	str	r0, [r7, #4]
    e90c:	6878      	ldr	r0, [r7, #4]
    e90e:	f000 f89f 	bl	ea50 <_ZN9__gnu_cxx13new_allocatorIN2cv3MatEEC1Ev>
    e912:	687b      	ldr	r3, [r7, #4]
    e914:	4618      	mov	r0, r3
    e916:	3708      	adds	r7, #8
    e918:	46bd      	mov	sp, r7
    e91a:	bd80      	pop	{r7, pc}

0000e91c <_ZN9__gnu_cxx13new_allocatorIN2cv3MatEED1Ev>:
    e91c:	b480      	push	{r7}
    e91e:	b083      	sub	sp, #12
    e920:	af00      	add	r7, sp, #0
    e922:	6078      	str	r0, [r7, #4]
    e924:	687b      	ldr	r3, [r7, #4]
    e926:	4618      	mov	r0, r3
    e928:	370c      	adds	r7, #12
    e92a:	46bd      	mov	sp, r7
    e92c:	f85d 7b04 	ldr.w	r7, [sp], #4
    e930:	4770      	bx	lr
    e932:	bf00      	nop

0000e934 <_ZN9__gnu_cxx13new_allocatorIN2cv3MatEE10deallocateEPS2_j>:
    e934:	b580      	push	{r7, lr}
    e936:	b084      	sub	sp, #16
    e938:	af00      	add	r7, sp, #0
    e93a:	60f8      	str	r0, [r7, #12]
    e93c:	60b9      	str	r1, [r7, #8]
    e93e:	607a      	str	r2, [r7, #4]
    e940:	68b8      	ldr	r0, [r7, #8]
    e942:	f7fd ebaa 	blx	c098 <_init+0x110>
    e946:	3710      	adds	r7, #16
    e948:	46bd      	mov	sp, r7
    e94a:	bd80      	pop	{r7, pc}

0000e94c <_ZNSt12_Destroy_auxILb0EE9__destroyIPN2cv3MatEEEvT_S5_>:
    e94c:	b580      	push	{r7, lr}
    e94e:	b082      	sub	sp, #8
    e950:	af00      	add	r7, sp, #0
    e952:	6078      	str	r0, [r7, #4]
    e954:	6039      	str	r1, [r7, #0]
    e956:	e009      	b.n	e96c <_ZNSt12_Destroy_auxILb0EE9__destroyIPN2cv3MatEEEvT_S5_+0x20>
    e958:	6878      	ldr	r0, [r7, #4]
    e95a:	f000 f885 	bl	ea68 <_ZSt11__addressofIN2cv3MatEEPT_RS2_>
    e95e:	4603      	mov	r3, r0
    e960:	4618      	mov	r0, r3
    e962:	f000 f88d 	bl	ea80 <_ZSt8_DestroyIN2cv3MatEEvPT_>
    e966:	687b      	ldr	r3, [r7, #4]
    e968:	3338      	adds	r3, #56	; 0x38
    e96a:	607b      	str	r3, [r7, #4]
    e96c:	687a      	ldr	r2, [r7, #4]
    e96e:	683b      	ldr	r3, [r7, #0]
    e970:	429a      	cmp	r2, r3
    e972:	d1f1      	bne.n	e958 <_ZNSt12_Destroy_auxILb0EE9__destroyIPN2cv3MatEEEvT_S5_+0xc>
    e974:	3708      	adds	r7, #8
    e976:	46bd      	mov	sp, r7
    e978:	bd80      	pop	{r7, pc}
    e97a:	bf00      	nop

0000e97c <_ZNSaIN2cv3gpu6GpuMatEEC1Ev>:
    e97c:	b580      	push	{r7, lr}
    e97e:	b082      	sub	sp, #8
    e980:	af00      	add	r7, sp, #0
    e982:	6078      	str	r0, [r7, #4]
    e984:	6878      	ldr	r0, [r7, #4]
    e986:	f000 f885 	bl	ea94 <_ZN9__gnu_cxx13new_allocatorIN2cv3gpu6GpuMatEEC1Ev>
    e98a:	687b      	ldr	r3, [r7, #4]
    e98c:	4618      	mov	r0, r3
    e98e:	3708      	adds	r7, #8
    e990:	46bd      	mov	sp, r7
    e992:	bd80      	pop	{r7, pc}

0000e994 <_ZN9__gnu_cxx13new_allocatorIN2cv3gpu6GpuMatEED1Ev>:
    e994:	b480      	push	{r7}
    e996:	b083      	sub	sp, #12
    e998:	af00      	add	r7, sp, #0
    e99a:	6078      	str	r0, [r7, #4]
    e99c:	687b      	ldr	r3, [r7, #4]
    e99e:	4618      	mov	r0, r3
    e9a0:	370c      	adds	r7, #12
    e9a2:	46bd      	mov	sp, r7
    e9a4:	f85d 7b04 	ldr.w	r7, [sp], #4
    e9a8:	4770      	bx	lr
    e9aa:	bf00      	nop

0000e9ac <_ZN9__gnu_cxx13new_allocatorIN2cv3gpu6GpuMatEE10deallocateEPS3_j>:
    e9ac:	b580      	push	{r7, lr}
    e9ae:	b084      	sub	sp, #16
    e9b0:	af00      	add	r7, sp, #0
    e9b2:	60f8      	str	r0, [r7, #12]
    e9b4:	60b9      	str	r1, [r7, #8]
    e9b6:	607a      	str	r2, [r7, #4]
    e9b8:	68b8      	ldr	r0, [r7, #8]
    e9ba:	f7fd eb6e 	blx	c098 <_init+0x110>
    e9be:	3710      	adds	r7, #16
    e9c0:	46bd      	mov	sp, r7
    e9c2:	bd80      	pop	{r7, pc}

0000e9c4 <_ZNSt12_Destroy_auxILb0EE9__destroyIPN2cv3gpu6GpuMatEEEvT_S6_>:
    e9c4:	b580      	push	{r7, lr}
    e9c6:	b082      	sub	sp, #8
    e9c8:	af00      	add	r7, sp, #0
    e9ca:	6078      	str	r0, [r7, #4]
    e9cc:	6039      	str	r1, [r7, #0]
    e9ce:	e009      	b.n	e9e4 <_ZNSt12_Destroy_auxILb0EE9__destroyIPN2cv3gpu6GpuMatEEEvT_S6_+0x20>
    e9d0:	6878      	ldr	r0, [r7, #4]
    e9d2:	f000 f86b 	bl	eaac <_ZSt11__addressofIN2cv3gpu6GpuMatEEPT_RS3_>
    e9d6:	4603      	mov	r3, r0
    e9d8:	4618      	mov	r0, r3
    e9da:	f000 f873 	bl	eac4 <_ZSt8_DestroyIN2cv3gpu6GpuMatEEvPT_>
    e9de:	687b      	ldr	r3, [r7, #4]
    e9e0:	3320      	adds	r3, #32
    e9e2:	607b      	str	r3, [r7, #4]
    e9e4:	687a      	ldr	r2, [r7, #4]
    e9e6:	683b      	ldr	r3, [r7, #0]
    e9e8:	429a      	cmp	r2, r3
    e9ea:	d1f1      	bne.n	e9d0 <_ZNSt12_Destroy_auxILb0EE9__destroyIPN2cv3gpu6GpuMatEEEvT_S6_+0xc>
    e9ec:	3708      	adds	r7, #8
    e9ee:	46bd      	mov	sp, r7
    e9f0:	bd80      	pop	{r7, pc}
    e9f2:	bf00      	nop

0000e9f4 <_ZNSaIN2cv3VecIfLi3EEEEC1Ev>:
    e9f4:	b580      	push	{r7, lr}
    e9f6:	b082      	sub	sp, #8
    e9f8:	af00      	add	r7, sp, #0
    e9fa:	6078      	str	r0, [r7, #4]
    e9fc:	6878      	ldr	r0, [r7, #4]
    e9fe:	f000 f86b 	bl	ead8 <_ZN9__gnu_cxx13new_allocatorIN2cv3VecIfLi3EEEEC1Ev>
    ea02:	687b      	ldr	r3, [r7, #4]
    ea04:	4618      	mov	r0, r3
    ea06:	3708      	adds	r7, #8
    ea08:	46bd      	mov	sp, r7
    ea0a:	bd80      	pop	{r7, pc}

0000ea0c <_ZN9__gnu_cxx13new_allocatorIN2cv3VecIfLi3EEEED1Ev>:
    ea0c:	b480      	push	{r7}
    ea0e:	b083      	sub	sp, #12
    ea10:	af00      	add	r7, sp, #0
    ea12:	6078      	str	r0, [r7, #4]
    ea14:	687b      	ldr	r3, [r7, #4]
    ea16:	4618      	mov	r0, r3
    ea18:	370c      	adds	r7, #12
    ea1a:	46bd      	mov	sp, r7
    ea1c:	f85d 7b04 	ldr.w	r7, [sp], #4
    ea20:	4770      	bx	lr
    ea22:	bf00      	nop

0000ea24 <_ZN9__gnu_cxx13new_allocatorIN2cv3VecIfLi3EEEE10deallocateEPS3_j>:
    ea24:	b580      	push	{r7, lr}
    ea26:	b084      	sub	sp, #16
    ea28:	af00      	add	r7, sp, #0
    ea2a:	60f8      	str	r0, [r7, #12]
    ea2c:	60b9      	str	r1, [r7, #8]
    ea2e:	607a      	str	r2, [r7, #4]
    ea30:	68b8      	ldr	r0, [r7, #8]
    ea32:	f7fd eb32 	blx	c098 <_init+0x110>
    ea36:	3710      	adds	r7, #16
    ea38:	46bd      	mov	sp, r7
    ea3a:	bd80      	pop	{r7, pc}

0000ea3c <_ZNSt12_Destroy_auxILb1EE9__destroyIPN2cv3VecIfLi3EEEEEvT_S6_>:
    ea3c:	b480      	push	{r7}
    ea3e:	b083      	sub	sp, #12
    ea40:	af00      	add	r7, sp, #0
    ea42:	6078      	str	r0, [r7, #4]
    ea44:	6039      	str	r1, [r7, #0]
    ea46:	370c      	adds	r7, #12
    ea48:	46bd      	mov	sp, r7
    ea4a:	f85d 7b04 	ldr.w	r7, [sp], #4
    ea4e:	4770      	bx	lr

0000ea50 <_ZN9__gnu_cxx13new_allocatorIN2cv3MatEEC1Ev>:
    ea50:	b480      	push	{r7}
    ea52:	b083      	sub	sp, #12
    ea54:	af00      	add	r7, sp, #0
    ea56:	6078      	str	r0, [r7, #4]
    ea58:	687b      	ldr	r3, [r7, #4]
    ea5a:	4618      	mov	r0, r3
    ea5c:	370c      	adds	r7, #12
    ea5e:	46bd      	mov	sp, r7
    ea60:	f85d 7b04 	ldr.w	r7, [sp], #4
    ea64:	4770      	bx	lr
    ea66:	bf00      	nop

0000ea68 <_ZSt11__addressofIN2cv3MatEEPT_RS2_>:
    ea68:	b480      	push	{r7}
    ea6a:	b083      	sub	sp, #12
    ea6c:	af00      	add	r7, sp, #0
    ea6e:	6078      	str	r0, [r7, #4]
    ea70:	687b      	ldr	r3, [r7, #4]
    ea72:	4618      	mov	r0, r3
    ea74:	370c      	adds	r7, #12
    ea76:	46bd      	mov	sp, r7
    ea78:	f85d 7b04 	ldr.w	r7, [sp], #4
    ea7c:	4770      	bx	lr
    ea7e:	bf00      	nop

0000ea80 <_ZSt8_DestroyIN2cv3MatEEvPT_>:
    ea80:	b580      	push	{r7, lr}
    ea82:	b082      	sub	sp, #8
    ea84:	af00      	add	r7, sp, #0
    ea86:	6078      	str	r0, [r7, #4]
    ea88:	6878      	ldr	r0, [r7, #4]
    ea8a:	f7ff fa1f 	bl	decc <_ZN2cv3MatD1Ev>
    ea8e:	3708      	adds	r7, #8
    ea90:	46bd      	mov	sp, r7
    ea92:	bd80      	pop	{r7, pc}

0000ea94 <_ZN9__gnu_cxx13new_allocatorIN2cv3gpu6GpuMatEEC1Ev>:
    ea94:	b480      	push	{r7}
    ea96:	b083      	sub	sp, #12
    ea98:	af00      	add	r7, sp, #0
    ea9a:	6078      	str	r0, [r7, #4]
    ea9c:	687b      	ldr	r3, [r7, #4]
    ea9e:	4618      	mov	r0, r3
    eaa0:	370c      	adds	r7, #12
    eaa2:	46bd      	mov	sp, r7
    eaa4:	f85d 7b04 	ldr.w	r7, [sp], #4
    eaa8:	4770      	bx	lr
    eaaa:	bf00      	nop

0000eaac <_ZSt11__addressofIN2cv3gpu6GpuMatEEPT_RS3_>:
    eaac:	b480      	push	{r7}
    eaae:	b083      	sub	sp, #12
    eab0:	af00      	add	r7, sp, #0
    eab2:	6078      	str	r0, [r7, #4]
    eab4:	687b      	ldr	r3, [r7, #4]
    eab6:	4618      	mov	r0, r3
    eab8:	370c      	adds	r7, #12
    eaba:	46bd      	mov	sp, r7
    eabc:	f85d 7b04 	ldr.w	r7, [sp], #4
    eac0:	4770      	bx	lr
    eac2:	bf00      	nop

0000eac4 <_ZSt8_DestroyIN2cv3gpu6GpuMatEEvPT_>:
    eac4:	b580      	push	{r7, lr}
    eac6:	b082      	sub	sp, #8
    eac8:	af00      	add	r7, sp, #0
    eaca:	6078      	str	r0, [r7, #4]
    eacc:	6878      	ldr	r0, [r7, #4]
    eace:	f7ff fb25 	bl	e11c <_ZN2cv3gpu6GpuMatD1Ev>
    ead2:	3708      	adds	r7, #8
    ead4:	46bd      	mov	sp, r7
    ead6:	bd80      	pop	{r7, pc}

0000ead8 <_ZN9__gnu_cxx13new_allocatorIN2cv3VecIfLi3EEEEC1Ev>:
    ead8:	b480      	push	{r7}
    eada:	b083      	sub	sp, #12
    eadc:	af00      	add	r7, sp, #0
    eade:	6078      	str	r0, [r7, #4]
    eae0:	687b      	ldr	r3, [r7, #4]
    eae2:	4618      	mov	r0, r3
    eae4:	370c      	adds	r7, #12
    eae6:	46bd      	mov	sp, r7
    eae8:	f85d 7b04 	ldr.w	r7, [sp], #4
    eaec:	4770      	bx	lr
    eaee:	bf00      	nop

0000eaf0 <__libc_csu_init>:
    eaf0:	e92d 43f8 	stmdb	sp!, {r3, r4, r5, r6, r7, r8, r9, lr}
    eaf4:	4607      	mov	r7, r0
    eaf6:	4e0c      	ldr	r6, [pc, #48]	; (eb28 <__libc_csu_init+0x38>)
    eaf8:	4688      	mov	r8, r1
    eafa:	4d0c      	ldr	r5, [pc, #48]	; (eb2c <__libc_csu_init+0x3c>)
    eafc:	4691      	mov	r9, r2
    eafe:	447e      	add	r6, pc
    eb00:	f7fd ea42 	blx	bf88 <_init>
    eb04:	447d      	add	r5, pc
    eb06:	1b76      	subs	r6, r6, r5
    eb08:	10b6      	asrs	r6, r6, #2
    eb0a:	d00a      	beq.n	eb22 <__libc_csu_init+0x32>
    eb0c:	3d04      	subs	r5, #4
    eb0e:	2400      	movs	r4, #0
    eb10:	3401      	adds	r4, #1
    eb12:	f855 3f04 	ldr.w	r3, [r5, #4]!
    eb16:	4638      	mov	r0, r7
    eb18:	4641      	mov	r1, r8
    eb1a:	464a      	mov	r2, r9
    eb1c:	4798      	blx	r3
    eb1e:	42b4      	cmp	r4, r6
    eb20:	d1f6      	bne.n	eb10 <__libc_csu_init+0x20>
    eb22:	e8bd 83f8 	ldmia.w	sp!, {r3, r4, r5, r6, r7, r8, r9, pc}
    eb26:	bf00      	nop
    eb28:	000093be 	.word	0x000093be
    eb2c:	000093b0 	.word	0x000093b0

0000eb30 <__libc_csu_fini>:
    eb30:	4770      	bx	lr
    eb32:	bf00      	nop

Disassembly of section .fini:

0000eb34 <_fini>:
    eb34:	e92d4008 	push	{r3, lr}
    eb38:	e8bd8008 	pop	{r3, pc}
